ARM GAS  /var/folders/fr/v3bs66k977527trx432fyrqc0000gn/T//cc89F4IQ.s 			page 1


   1              		.cpu cortex-m7
   2              		.eabi_attribute 27, 1	@ Tag_ABI_HardFP_use
   3              		.eabi_attribute 28, 1	@ Tag_ABI_VFP_args
   4              		.eabi_attribute 20, 1	@ Tag_ABI_FP_denormal
   5              		.eabi_attribute 21, 1	@ Tag_ABI_FP_exceptions
   6              		.eabi_attribute 23, 3	@ Tag_ABI_FP_number_model
   7              		.eabi_attribute 24, 1	@ Tag_ABI_align8_needed
   8              		.eabi_attribute 25, 1	@ Tag_ABI_align8_preserved
   9              		.eabi_attribute 26, 1	@ Tag_ABI_enum_size
  10              		.eabi_attribute 30, 2	@ Tag_ABI_optimization_goals
  11              		.eabi_attribute 34, 1	@ Tag_CPU_unaligned_access
  12              		.eabi_attribute 18, 4	@ Tag_ABI_PCS_wchar_t
  13              		.file	"hebitmap_prv.c"
  14              	@ GNU C17 (GNU Tools for Arm Embedded Processors 9-2019-q4-major) version 9.2.1 20191025 (release) 
  15              	@	compiled by GNU C version 4.2.1 Compatible Apple LLVM 9.0.0 (clang-900.0.39.2), GMP version 6.1.0
  16              	
  17              	@ GGC heuristics: --param ggc-min-expand=100 --param ggc-min-heapsize=131072
  18              	@ options passed:  -I . -I . -I /Users/rae/Developer/PlaydateSDK/C_API
  19              	@ -I src -imultilib thumb/v7e-m+fp/hard
  20              	@ -iprefix /usr/local/playdate/gcc-arm-none-eabi-9-2019-q4-major/bin/../lib/gcc/arm-none-eabi/9.2.1
  21              	@ -isysroot /usr/local/playdate/gcc-arm-none-eabi-9-2019-q4-major/bin/../arm-none-eabi
  22              	@ -MD build/src/hebitmap_prv.d -MF build/dep/hebitmap_prv.o.d -MP
  23              	@ -MQ build/src/hebitmap_prv.o -D__USES_INITFINI__ -D __FPU_USED=1
  24              	@ -D TARGET_PLAYDATE=1 -D TARGET_EXTENSION=1 src/hebitmap_prv.c -mthumb
  25              	@ -mcpu=cortex-m7 -mfloat-abi=hard -mfpu=fpv5-sp-d16 -mword-relocations
  26              	@ -march=armv7e-m+fpv5 -auxbase-strip build/src/hebitmap_prv.o -g3
  27              	@ -gdwarf-2 -O2 -Wall -Wno-unused -Wstrict-prototypes -Wno-unknown-pragmas
  28              	@ -Wdouble-promotion -falign-functions=16 -fomit-frame-pointer
  29              	@ -fverbose-asm -fno-common -ffunction-sections -fdata-sections
  30              	@ options enabled:  -faggressive-loop-optimizations -falign-functions
  31              	@ -falign-jumps -falign-labels -falign-loops -fassume-phsa -fauto-inc-dec
  32              	@ -fbranch-count-reg -fcaller-saves -fcombine-stack-adjustments
  33              	@ -fcompare-elim -fcprop-registers -fcrossjumping -fcse-follow-jumps
  34              	@ -fdata-sections -fdefer-pop -fdelete-null-pointer-checks -fdevirtualize
  35              	@ -fdevirtualize-speculatively -fdwarf2-cfi-asm -fearly-inlining
  36              	@ -feliminate-unused-debug-types -fexpensive-optimizations
  37              	@ -fforward-propagate -ffp-int-builtin-inexact -ffunction-cse
  38              	@ -ffunction-sections -fgcse -fgcse-lm -fgnu-runtime -fgnu-unique
  39              	@ -fguess-branch-probability -fhoist-adjacent-loads -fident -fif-conversion
  40              	@ -fif-conversion2 -findirect-inlining -finline -finline-atomics
  41              	@ -finline-functions-called-once -finline-small-functions -fipa-bit-cp
  42              	@ -fipa-cp -fipa-icf -fipa-icf-functions -fipa-icf-variables -fipa-profile
  43              	@ -fipa-pure-const -fipa-ra -fipa-reference -fipa-reference-addressable
  44              	@ -fipa-sra -fipa-stack-alignment -fipa-vrp -fira-hoist-pressure
  45              	@ -fira-share-save-slots -fira-share-spill-slots
  46              	@ -fisolate-erroneous-paths-dereference -fivopts -fkeep-static-consts
  47              	@ -fleading-underscore -flifetime-dse -flra-remat -flto-odr-type-merging
  48              	@ -fmath-errno -fmerge-constants -fmerge-debug-strings
  49              	@ -fmove-loop-invariants -fomit-frame-pointer -foptimize-sibling-calls
  50              	@ -foptimize-strlen -fpartial-inlining -fpeephole -fpeephole2 -fplt
  51              	@ -fprefetch-loop-arrays -freg-struct-return -freorder-blocks
  52              	@ -freorder-functions -frerun-cse-after-loop
  53              	@ -fsched-critical-path-heuristic -fsched-dep-count-heuristic
  54              	@ -fsched-group-heuristic -fsched-interblock -fsched-last-insn-heuristic
  55              	@ -fsched-pressure -fsched-rank-heuristic -fsched-spec
  56              	@ -fsched-spec-insn-heuristic -fsched-stalled-insns-dep -fschedule-insns
  57              	@ -fschedule-insns2 -fsection-anchors -fsemantic-interposition
ARM GAS  /var/folders/fr/v3bs66k977527trx432fyrqc0000gn/T//cc89F4IQ.s 			page 2


  58              	@ -fshow-column -fshrink-wrap -fshrink-wrap-separate -fsigned-zeros
  59              	@ -fsplit-ivs-in-unroller -fsplit-wide-types -fssa-backprop -fssa-phiopt
  60              	@ -fstdarg-opt -fstore-merging -fstrict-aliasing
  61              	@ -fstrict-volatile-bitfields -fsync-libcalls -fthread-jumps
  62              	@ -ftoplevel-reorder -ftrapping-math -ftree-bit-ccp -ftree-builtin-call-dce
  63              	@ -ftree-ccp -ftree-ch -ftree-coalesce-vars -ftree-copy-prop -ftree-cselim
  64              	@ -ftree-dce -ftree-dominator-opts -ftree-dse -ftree-forwprop -ftree-fre
  65              	@ -ftree-loop-if-convert -ftree-loop-im -ftree-loop-ivcanon
  66              	@ -ftree-loop-optimize -ftree-parallelize-loops= -ftree-phiprop -ftree-pre
  67              	@ -ftree-pta -ftree-reassoc -ftree-scev-cprop -ftree-sink -ftree-slsr
  68              	@ -ftree-sra -ftree-switch-conversion -ftree-tail-merge -ftree-ter
  69              	@ -ftree-vrp -funit-at-a-time -fvar-tracking -fvar-tracking-assignments
  70              	@ -fverbose-asm -fzero-initialized-in-bss -masm-syntax-unified -mbe32
  71              	@ -mlittle-endian -mpic-data-is-text-relative -msched-prolog -mthumb
  72              	@ -munaligned-access -mvectorize-with-neon-quad -mword-relocations
  73              	
  74              		.text
  75              	.Ltext0:
  76              		.cfi_sections	.debug_frame
  77              		.section	.text.clip_bounds,"ax",%progbits
  78              		.align	1
  79              		.p2align 4,,15
  80              		.global	clip_bounds
  81              		.arch armv7e-m
  82              		.syntax unified
  83              		.thumb
  84              		.thumb_func
  85              		.fpu fpv5-sp-d16
  86              		.type	clip_bounds, %function
  87              	clip_bounds:
  88              	.LVL0:
  89              	.LFB15:
  90              		.file 1 "src/hebitmap_prv.c"
   1:src/hebitmap_prv.c **** //
   2:src/hebitmap_prv.c **** //  hebitmap_prv.c
   3:src/hebitmap_prv.c **** //  HEBitmap
   4:src/hebitmap_prv.c **** //
   5:src/hebitmap_prv.c **** //  Created by Matteo D'Ignazio on 12/02/24.
   6:src/hebitmap_prv.c **** //
   7:src/hebitmap_prv.c **** 
   8:src/hebitmap_prv.c **** #include "hebitmap_prv.h"
   9:src/hebitmap_prv.c **** 
  10:src/hebitmap_prv.c **** _HEBitmapRect _clipRect = {
  11:src/hebitmap_prv.c ****     .x = 0,
  12:src/hebitmap_prv.c ****     .y = 0,
  13:src/hebitmap_prv.c ****     .width = LCD_COLUMNS,
  14:src/hebitmap_prv.c ****     .height = LCD_ROWS
  15:src/hebitmap_prv.c **** };
  16:src/hebitmap_prv.c **** 
  17:src/hebitmap_prv.c **** _HEBitmapRect clipRect = {
  18:src/hebitmap_prv.c ****     .x = 0,
  19:src/hebitmap_prv.c ****     .y = 0,
  20:src/hebitmap_prv.c ****     .width = LCD_COLUMNS,
  21:src/hebitmap_prv.c ****     .height = LCD_ROWS
  22:src/hebitmap_prv.c **** };
  23:src/hebitmap_prv.c **** 
  24:src/hebitmap_prv.c **** void clip_bounds(HEBitmap *bitmap, int x, int y, unsigned int *x1, unsigned int *y1, unsigned int *
ARM GAS  /var/folders/fr/v3bs66k977527trx432fyrqc0000gn/T//cc89F4IQ.s 			page 3


  25:src/hebitmap_prv.c **** {
  91              		.loc 1 25 1 view -0
  92              		.cfi_startproc
  93              		@ args = 36, pretend = 0, frame = 0
  94              		@ frame_needed = 0, uses_anonymous_args = 0
  95              		@ link register save eliminated.
  96              		.loc 1 25 1 is_stmt 0 view .LVU1
  97 0000 2DE9F003 		push	{r4, r5, r6, r7, r8, r9}	@
  98              	.LCFI0:
  99              		.cfi_def_cfa_offset 24
 100              		.cfi_offset 4, -24
 101              		.cfi_offset 5, -20
 102              		.cfi_offset 6, -16
 103              		.cfi_offset 7, -12
 104              		.cfi_offset 8, -8
 105              		.cfi_offset 9, -4
 106 0004 0B9F     		ldr	r7, [sp, #44]	@ clipRect$x, MEM[(struct  *)&clipRect]
 107              	.LVL1:
 108              	@ src/hebitmap_prv.c:29:     *offset_left = 0;
  26:src/hebitmap_prv.c ****     _HEBitmap *prv = bitmap->prv;
  27:src/hebitmap_prv.c ****     
  28:src/hebitmap_prv.c ****     *x1 = x;
  29:src/hebitmap_prv.c ****     *offset_left = 0;
 109              		.loc 1 29 18 view .LVU2
 110 0006 0025     		movs	r5, #0	@ tmp142,
 111              	@ src/hebitmap_prv.c:25: {
  25:src/hebitmap_prv.c ****     _HEBitmap *prv = bitmap->prv;
 112              		.loc 1 25 1 view .LVU3
 113 0008 DDF82480 		ldr	r8, [sp, #36]	@ offset_left, offset_left
 114              	@ src/hebitmap_prv.c:31:     if(x < clipRect.x)
  30:src/hebitmap_prv.c **** 
  31:src/hebitmap_prv.c ****     if(x < clipRect.x)
 115              		.loc 1 31 7 view .LVU4
 116 000c B942     		cmp	r1, r7	@ x, clipRect$x
 117              	@ src/hebitmap_prv.c:26:     _HEBitmap *prv = bitmap->prv;
  26:src/hebitmap_prv.c ****     
 118              		.loc 1 26 16 view .LVU5
 119 000e 0668     		ldr	r6, [r0]	@ prv, bitmap_19(D)->prv
 120              	@ src/hebitmap_prv.c:25: {
  25:src/hebitmap_prv.c ****     _HEBitmap *prv = bitmap->prv;
 121              		.loc 1 25 1 view .LVU6
 122 0010 069C     		ldr	r4, [sp, #24]	@ y1, y1
 123              	@ src/hebitmap_prv.c:28:     *x1 = x;
  28:src/hebitmap_prv.c ****     *offset_left = 0;
 124              		.loc 1 28 9 view .LVU7
 125 0012 1960     		str	r1, [r3]	@ x, *x1_22(D)
 126              	@ src/hebitmap_prv.c:25: {
  25:src/hebitmap_prv.c ****     _HEBitmap *prv = bitmap->prv;
 127              		.loc 1 25 1 view .LVU8
 128 0014 0A98     		ldr	r0, [sp, #40]	@ offset_top, offset_top
 129              	.LVL2:
 130              	@ src/hebitmap_prv.c:29:     *offset_left = 0;
  29:src/hebitmap_prv.c **** 
 131              		.loc 1 29 18 view .LVU9
 132 0016 C8F80050 		str	r5, [r8]	@ tmp142, *offset_left_24(D)
 133 001a 0C9D     		ldr	r5, [sp, #48]	@ clipRect$y, MEM[(struct  *)&clipRect + 4B]
 134              	.LVL3:
ARM GAS  /var/folders/fr/v3bs66k977527trx432fyrqc0000gn/T//cc89F4IQ.s 			page 4


  26:src/hebitmap_prv.c ****     
 135              		.loc 1 26 5 is_stmt 1 view .LVU10
  28:src/hebitmap_prv.c ****     *offset_left = 0;
 136              		.loc 1 28 5 view .LVU11
  29:src/hebitmap_prv.c **** 
 137              		.loc 1 29 5 view .LVU12
 138              		.loc 1 31 5 view .LVU13
 139              	@ src/hebitmap_prv.c:31:     if(x < clipRect.x)
 140              		.loc 1 31 7 is_stmt 0 view .LVU14
 141 001c 04DA     		bge	.L2		@,
  32:src/hebitmap_prv.c ****     {
  33:src/hebitmap_prv.c ****         *x1 = clipRect.x;
 142              		.loc 1 33 9 is_stmt 1 view .LVU15
 143              	@ src/hebitmap_prv.c:34:         *offset_left = clipRect.x - x;
  34:src/hebitmap_prv.c ****         *offset_left = clipRect.x - x;
 144              		.loc 1 34 35 is_stmt 0 view .LVU16
 145 001e A7EB0109 		sub	r9, r7, r1	@ tmp143, clipRect$x, x
 146              	@ src/hebitmap_prv.c:33:         *x1 = clipRect.x;
  33:src/hebitmap_prv.c ****         *offset_left = clipRect.x - x;
 147              		.loc 1 33 13 view .LVU17
 148 0022 1F60     		str	r7, [r3]	@ clipRect$x, *x1_22(D)
 149              		.loc 1 34 9 is_stmt 1 view .LVU18
 150              	@ src/hebitmap_prv.c:34:         *offset_left = clipRect.x - x;
 151              		.loc 1 34 22 is_stmt 0 view .LVU19
 152 0024 C8F80090 		str	r9, [r8]	@ tmp143, *offset_left_24(D)
 153              	.L2:
  35:src/hebitmap_prv.c ****     }
  36:src/hebitmap_prv.c ****     
  37:src/hebitmap_prv.c ****     *y1 = y;
 154              		.loc 1 37 5 is_stmt 1 view .LVU20
 155              	@ src/hebitmap_prv.c:38:     *offset_top = 0;
  38:src/hebitmap_prv.c ****     *offset_top = 0;
 156              		.loc 1 38 17 is_stmt 0 view .LVU21
 157 0028 0023     		movs	r3, #0	@ tmp144,
 158              	.LVL4:
 159              	@ src/hebitmap_prv.c:40:     if(y < clipRect.y)
  39:src/hebitmap_prv.c ****     
  40:src/hebitmap_prv.c ****     if(y < clipRect.y)
 160              		.loc 1 40 7 view .LVU22
 161 002a 9542     		cmp	r5, r2	@ clipRect$y, y
 162              	@ src/hebitmap_prv.c:37:     *y1 = y;
  37:src/hebitmap_prv.c ****     *offset_top = 0;
 163              		.loc 1 37 9 view .LVU23
 164 002c 2260     		str	r2, [r4]	@ y, *y1_29(D)
  38:src/hebitmap_prv.c ****     *offset_top = 0;
 165              		.loc 1 38 5 is_stmt 1 view .LVU24
 166              	@ src/hebitmap_prv.c:38:     *offset_top = 0;
  38:src/hebitmap_prv.c ****     *offset_top = 0;
 167              		.loc 1 38 17 is_stmt 0 view .LVU25
 168 002e 0360     		str	r3, [r0]	@ tmp144, *offset_top_31(D)
 169              		.loc 1 40 5 is_stmt 1 view .LVU26
 170              	@ src/hebitmap_prv.c:40:     if(y < clipRect.y)
 171              		.loc 1 40 7 is_stmt 0 view .LVU27
 172 0030 02DD     		ble	.L3		@,
  41:src/hebitmap_prv.c ****     {
  42:src/hebitmap_prv.c ****         *y1 = clipRect.y;
 173              		.loc 1 42 9 is_stmt 1 view .LVU28
ARM GAS  /var/folders/fr/v3bs66k977527trx432fyrqc0000gn/T//cc89F4IQ.s 			page 5


 174              	@ src/hebitmap_prv.c:43:         *offset_top = clipRect.y - y;
  43:src/hebitmap_prv.c ****         *offset_top = clipRect.y - y;
 175              		.loc 1 43 34 is_stmt 0 view .LVU29
 176 0032 AB1A     		subs	r3, r5, r2	@ tmp145, clipRect$y, y
 177              	@ src/hebitmap_prv.c:42:         *y1 = clipRect.y;
  42:src/hebitmap_prv.c ****         *offset_top = clipRect.y - y;
 178              		.loc 1 42 13 view .LVU30
 179 0034 2560     		str	r5, [r4]	@ clipRect$y, *y1_29(D)
 180              		.loc 1 43 9 is_stmt 1 view .LVU31
 181              	@ src/hebitmap_prv.c:43:         *offset_top = clipRect.y - y;
 182              		.loc 1 43 21 is_stmt 0 view .LVU32
 183 0036 0360     		str	r3, [r0]	@ tmp145, *offset_top_31(D)
 184              	.L3:
  44:src/hebitmap_prv.c ****     }
  45:src/hebitmap_prv.c ****     
  46:src/hebitmap_prv.c ****     int bitmap_x2 = x + prv->bw;
 185              		.loc 1 46 5 is_stmt 1 view .LVU33
 186              	.LVL5:
  47:src/hebitmap_prv.c ****     int bitmap_y2 = y + prv->bh;
 187              		.loc 1 47 5 view .LVU34
 188              	@ src/hebitmap_prv.c:49:     int clip_x2 = clipRect.x + clipRect.width;
  48:src/hebitmap_prv.c ****     
  49:src/hebitmap_prv.c ****     int clip_x2 = clipRect.x + clipRect.width;
 189              		.loc 1 49 9 is_stmt 0 view .LVU35
 190 0038 0D9B     		ldr	r3, [sp, #52]	@ clipRect.width, clipRect.width
 191              	@ src/hebitmap_prv.c:47:     int bitmap_y2 = y + prv->bh;
  47:src/hebitmap_prv.c ****     int bitmap_y2 = y + prv->bh;
 192              		.loc 1 47 9 view .LVU36
 193 003a D6E90540 		ldrd	r4, r0, [r6, #20]	@ prv_20->bw, prv_20->bh, prv,
 194              	@ src/hebitmap_prv.c:49:     int clip_x2 = clipRect.x + clipRect.width;
 195              		.loc 1 49 9 view .LVU37
 196 003e 3B44     		add	r3, r3, r7	@ clip_x2, clipRect$x
 197              	@ src/hebitmap_prv.c:50:     int clip_y2 = clipRect.y + clipRect.height;
  50:src/hebitmap_prv.c ****     int clip_y2 = clipRect.y + clipRect.height;
 198              		.loc 1 50 9 view .LVU38
 199 0040 0E9E     		ldr	r6, [sp, #56]	@ clipRect.height, clipRect.height
 200              	.LVL6:
 201              	@ src/hebitmap_prv.c:46:     int bitmap_x2 = x + prv->bw;
  46:src/hebitmap_prv.c ****     int bitmap_y2 = y + prv->bh;
 202              		.loc 1 46 9 view .LVU39
 203 0042 2144     		add	r1, r1, r4	@ bitmap_x2, prv_20->bw
 204              	.LVL7:
 205              	@ src/hebitmap_prv.c:47:     int bitmap_y2 = y + prv->bh;
  47:src/hebitmap_prv.c ****     
 206              		.loc 1 47 9 view .LVU40
 207 0044 0244     		add	r2, r2, r0	@ bitmap_y2, prv_20->bh
 208              	.LVL8:
  49:src/hebitmap_prv.c ****     int clip_y2 = clipRect.y + clipRect.height;
 209              		.loc 1 49 5 is_stmt 1 view .LVU41
 210              		.loc 1 50 5 view .LVU42
 211              	@ src/hebitmap_prv.c:50:     int clip_y2 = clipRect.y + clipRect.height;
 212              		.loc 1 50 9 is_stmt 0 view .LVU43
 213 0046 3544     		add	r5, r5, r6	@ clip_y2, clipRect.height
 214              	.LVL9:
  51:src/hebitmap_prv.c **** 
  52:src/hebitmap_prv.c ****     *x2 = hebitmap_min(bitmap_x2, clip_x2);
 215              		.loc 1 52 5 is_stmt 1 view .LVU44
ARM GAS  /var/folders/fr/v3bs66k977527trx432fyrqc0000gn/T//cc89F4IQ.s 			page 6


 216              	.LBB6:
 217              	.LBI6:
 218              		.file 2 "src/hebitmap_prv.h"
   1:src/hebitmap_prv.h **** //
   2:src/hebitmap_prv.h **** //  hebitmap_prv.h
   3:src/hebitmap_prv.h **** //  HEBitmap
   4:src/hebitmap_prv.h **** //
   5:src/hebitmap_prv.h **** //  Created by Matteo D'Ignazio on 12/02/24.
   6:src/hebitmap_prv.h **** //
   7:src/hebitmap_prv.h **** 
   8:src/hebitmap_prv.h **** #ifndef hebitmap_prv_h
   9:src/hebitmap_prv.h **** #define hebitmap_prv_h
  10:src/hebitmap_prv.h **** 
  11:src/hebitmap_prv.h **** #include "hebitmap.h"
  12:src/hebitmap_prv.h **** 
  13:src/hebitmap_prv.h **** typedef struct _HEBitmap {
  14:src/hebitmap_prv.h ****     uint8_t *data;
  15:src/hebitmap_prv.h ****     uint8_t *mask;
  16:src/hebitmap_prv.h ****     int rowbytes;
  17:src/hebitmap_prv.h ****     int bx;
  18:src/hebitmap_prv.h ****     int by;
  19:src/hebitmap_prv.h ****     int bw;
  20:src/hebitmap_prv.h ****     int bh;
  21:src/hebitmap_prv.h ****     uint8_t *buffer;
  22:src/hebitmap_prv.h ****     int isOwner;
  23:src/hebitmap_prv.h ****     int hasData;
  24:src/hebitmap_prv.h ****     HEBitmapTable *bitmapTable;
  25:src/hebitmap_prv.h ****     LuaUDObject *luaRef;
  26:src/hebitmap_prv.h ****     LuaUDObject *luaTableRef;
  27:src/hebitmap_prv.h **** } _HEBitmap;
  28:src/hebitmap_prv.h **** 
  29:src/hebitmap_prv.h **** typedef struct _HEBitmapTable {
  30:src/hebitmap_prv.h ****     HEBitmap **bitmaps;
  31:src/hebitmap_prv.h ****     uint8_t *buffer;
  32:src/hebitmap_prv.h ****     int luaRefCount;
  33:src/hebitmap_prv.h ****     LuaUDObject *luaRef;
  34:src/hebitmap_prv.h **** } _HEBitmapTable;
  35:src/hebitmap_prv.h **** 
  36:src/hebitmap_prv.h **** typedef struct {
  37:src/hebitmap_prv.h ****     int x;
  38:src/hebitmap_prv.h ****     int y;
  39:src/hebitmap_prv.h ****     int width;
  40:src/hebitmap_prv.h ****     int height;
  41:src/hebitmap_prv.h **** } _HEBitmapRect;
  42:src/hebitmap_prv.h **** 
  43:src/hebitmap_prv.h **** extern _HEBitmapRect _clipRect;
  44:src/hebitmap_prv.h **** extern _HEBitmapRect clipRect;
  45:src/hebitmap_prv.h **** 
  46:src/hebitmap_prv.h **** void clip_bounds(HEBitmap *bitmap, int x, int y, unsigned int *x1, unsigned int *y1, unsigned int *
  47:src/hebitmap_prv.h **** 
  48:src/hebitmap_prv.h **** static inline int hebitmap_min(const int a, const int b)
 219              		.loc 2 48 19 view .LVU45
 220              	.LBB7:
  49:src/hebitmap_prv.h **** {
  50:src/hebitmap_prv.h ****     return a < b ? a : b;
 221              		.loc 2 50 5 view .LVU46
 222              	@ src/hebitmap_prv.h:50:     return a < b ? a : b;
ARM GAS  /var/folders/fr/v3bs66k977527trx432fyrqc0000gn/T//cc89F4IQ.s 			page 7


 223              		.loc 2 50 22 is_stmt 0 view .LVU47
 224 0048 9942     		cmp	r1, r3	@ bitmap_x2, clip_x2
 225 004a A8BF     		it	ge
 226 004c 1946     		movge	r1, r3	@ tmp152, clip_x2
 227              	.LVL10:
 228              		.loc 2 50 22 view .LVU48
 229              	.LBE7:
 230              	.LBE6:
 231              	@ src/hebitmap_prv.c:52:     *x2 = hebitmap_min(bitmap_x2, clip_x2);
 232              		.loc 1 52 9 view .LVU49
 233 004e 079B     		ldr	r3, [sp, #28]	@ tmp160, x2
 234              	.LVL11:
 235              	.LBB8:
 236              	.LBB9:
 237              	@ src/hebitmap_prv.h:50:     return a < b ? a : b;
 238              		.loc 2 50 22 view .LVU50
 239 0050 AA42     		cmp	r2, r5	@ bitmap_y2, clip_y2
 240              	.LBE9:
 241              	.LBE8:
 242              	@ src/hebitmap_prv.c:52:     *x2 = hebitmap_min(bitmap_x2, clip_x2);
 243              		.loc 1 52 9 view .LVU51
 244 0052 1960     		str	r1, [r3]	@ tmp152, *x2_40(D)
  53:src/hebitmap_prv.c ****     *y2 = hebitmap_min(bitmap_y2, clip_y2);
 245              		.loc 1 53 5 is_stmt 1 view .LVU52
 246              	.LVL12:
 247              	.LBB11:
 248              	.LBI8:
  48:src/hebitmap_prv.h **** {
 249              		.loc 2 48 19 view .LVU53
 250              	.LBB10:
 251              		.loc 2 50 5 view .LVU54
 252              	@ src/hebitmap_prv.h:50:     return a < b ? a : b;
 253              		.loc 2 50 22 is_stmt 0 view .LVU55
 254 0054 A8BF     		it	ge
 255 0056 2A46     		movge	r2, r5	@ tmp153, clip_y2
 256              	.LVL13:
 257              		.loc 2 50 22 view .LVU56
 258              	.LBE10:
 259              	.LBE11:
 260              	@ src/hebitmap_prv.c:53:     *y2 = hebitmap_min(bitmap_y2, clip_y2);
 261              		.loc 1 53 9 view .LVU57
 262 0058 089B     		ldr	r3, [sp, #32]	@ tmp162, y2
 263              	@ src/hebitmap_prv.c:54: }
  54:src/hebitmap_prv.c **** }
 264              		.loc 1 54 1 view .LVU58
 265 005a BDE8F003 		pop	{r4, r5, r6, r7, r8, r9}	@
 266              	.LCFI1:
 267              		.cfi_restore 9
 268              		.cfi_restore 8
 269              		.cfi_restore 7
 270              		.cfi_restore 6
 271              		.cfi_restore 5
 272              		.cfi_restore 4
 273              		.cfi_def_cfa_offset 0
 274              	.LVL14:
 275              	@ src/hebitmap_prv.c:53:     *y2 = hebitmap_min(bitmap_y2, clip_y2);
  53:src/hebitmap_prv.c ****     *y2 = hebitmap_min(bitmap_y2, clip_y2);
ARM GAS  /var/folders/fr/v3bs66k977527trx432fyrqc0000gn/T//cc89F4IQ.s 			page 8


 276              		.loc 1 53 9 view .LVU59
 277 005e 1A60     		str	r2, [r3]	@ tmp153, *y2_43(D)
 278              	@ src/hebitmap_prv.c:54: }
 279              		.loc 1 54 1 view .LVU60
 280 0060 7047     		bx	lr	@
 281              		.cfi_endproc
 282              	.LFE15:
 283              		.size	clip_bounds, .-clip_bounds
 284              		.global	clipRect
 285              		.global	_clipRect
 286 0062 00BF     		.section	.data._clipRect,"aw"
 287              		.align	2
 288              		.type	_clipRect, %object
 289              		.size	_clipRect, 16
 290              	_clipRect:
 291              	@ x:
 292 0000 00000000 		.word	0
 293              	@ y:
 294 0004 00000000 		.word	0
 295              	@ width:
 296 0008 90010000 		.word	400
 297              	@ height:
 298 000c F0000000 		.word	240
 299              		.section	.data.clipRect,"aw"
 300              		.align	2
 301              		.type	clipRect, %object
 302              		.size	clipRect, 16
 303              	clipRect:
 304              	@ x:
 305 0000 00000000 		.word	0
 306              	@ y:
 307 0004 00000000 		.word	0
 308              	@ width:
 309 0008 90010000 		.word	400
 310              	@ height:
 311 000c F0000000 		.word	240
 312              		.text
 313              	.Letext0:
 314              		.file 3 "/usr/local/playdate/gcc-arm-none-eabi-9-2019-q4-major/arm-none-eabi/include/machine/_defa
 315              		.file 4 "/usr/local/playdate/gcc-arm-none-eabi-9-2019-q4-major/arm-none-eabi/include/sys/_stdint.h
 316              		.file 5 "/usr/local/playdate/gcc-arm-none-eabi-9-2019-q4-major/arm-none-eabi/include/sys/lock.h"
 317              		.file 6 "/usr/local/playdate/gcc-arm-none-eabi-9-2019-q4-major/arm-none-eabi/include/sys/_types.h"
 318              		.file 7 "/usr/local/playdate/gcc-arm-none-eabi-9-2019-q4-major/lib/gcc/arm-none-eabi/9.2.1/include
 319              		.file 8 "/usr/local/playdate/gcc-arm-none-eabi-9-2019-q4-major/arm-none-eabi/include/sys/reent.h"
 320              		.file 9 "/usr/local/playdate/gcc-arm-none-eabi-9-2019-q4-major/arm-none-eabi/include/stdlib.h"
 321              		.file 10 "/Users/rae/Developer/PlaydateSDK/C_API/pd_api/pd_api_lua.h"
 322              		.file 11 "/usr/local/playdate/gcc-arm-none-eabi-9-2019-q4-major/arm-none-eabi/include/math.h"
 323              		.file 12 "src/hebitmap.h"