ARM GAS  /var/folders/fr/v3bs66k977527trx432fyrqc0000gn/T//ccTJugNk.s 			page 1


   1              		.cpu cortex-m7
   2              		.eabi_attribute 27, 1	@ Tag_ABI_HardFP_use
   3              		.eabi_attribute 28, 1	@ Tag_ABI_VFP_args
   4              		.eabi_attribute 20, 1	@ Tag_ABI_FP_denormal
   5              		.eabi_attribute 21, 1	@ Tag_ABI_FP_exceptions
   6              		.eabi_attribute 23, 3	@ Tag_ABI_FP_number_model
   7              		.eabi_attribute 24, 1	@ Tag_ABI_align8_needed
   8              		.eabi_attribute 25, 1	@ Tag_ABI_align8_preserved
   9              		.eabi_attribute 26, 1	@ Tag_ABI_enum_size
  10              		.eabi_attribute 30, 2	@ Tag_ABI_optimization_goals
  11              		.eabi_attribute 34, 1	@ Tag_CPU_unaligned_access
  12              		.eabi_attribute 18, 4	@ Tag_ABI_PCS_wchar_t
  13              		.file	"hebitmap.c"
  14              	@ GNU C17 (GNU Tools for Arm Embedded Processors 9-2019-q4-major) version 9.2.1 20191025 (release) 
  15              	@	compiled by GNU C version 4.2.1 Compatible Apple LLVM 9.0.0 (clang-900.0.39.2), GMP version 6.1.0
  16              	
  17              	@ GGC heuristics: --param ggc-min-expand=100 --param ggc-min-heapsize=131072
  18              	@ options passed:  -I . -I . -I /Users/rae/Developer/PlaydateSDK/C_API
  19              	@ -I src -imultilib thumb/v7e-m+fp/hard
  20              	@ -iprefix /usr/local/playdate/gcc-arm-none-eabi-9-2019-q4-major/bin/../lib/gcc/arm-none-eabi/9.2.1
  21              	@ -isysroot /usr/local/playdate/gcc-arm-none-eabi-9-2019-q4-major/bin/../arm-none-eabi
  22              	@ -MD build/src/hebitmap.d -MF build/dep/hebitmap.o.d -MP
  23              	@ -MQ build/src/hebitmap.o -D__USES_INITFINI__ -D __FPU_USED=1
  24              	@ -D TARGET_PLAYDATE=1 -D TARGET_EXTENSION=1 src/hebitmap.c -mthumb
  25              	@ -mcpu=cortex-m7 -mfloat-abi=hard -mfpu=fpv5-sp-d16 -mword-relocations
  26              	@ -march=armv7e-m+fpv5 -auxbase-strip build/src/hebitmap.o -g3 -gdwarf-2
  27              	@ -O2 -Wall -Wno-unused -Wstrict-prototypes -Wno-unknown-pragmas
  28              	@ -Wdouble-promotion -falign-functions=16 -fomit-frame-pointer
  29              	@ -fverbose-asm -fno-common -ffunction-sections -fdata-sections
  30              	@ options enabled:  -faggressive-loop-optimizations -falign-functions
  31              	@ -falign-jumps -falign-labels -falign-loops -fassume-phsa -fauto-inc-dec
  32              	@ -fbranch-count-reg -fcaller-saves -fcombine-stack-adjustments
  33              	@ -fcompare-elim -fcprop-registers -fcrossjumping -fcse-follow-jumps
  34              	@ -fdata-sections -fdefer-pop -fdelete-null-pointer-checks -fdevirtualize
  35              	@ -fdevirtualize-speculatively -fdwarf2-cfi-asm -fearly-inlining
  36              	@ -feliminate-unused-debug-types -fexpensive-optimizations
  37              	@ -fforward-propagate -ffp-int-builtin-inexact -ffunction-cse
  38              	@ -ffunction-sections -fgcse -fgcse-lm -fgnu-runtime -fgnu-unique
  39              	@ -fguess-branch-probability -fhoist-adjacent-loads -fident -fif-conversion
  40              	@ -fif-conversion2 -findirect-inlining -finline -finline-atomics
  41              	@ -finline-functions-called-once -finline-small-functions -fipa-bit-cp
  42              	@ -fipa-cp -fipa-icf -fipa-icf-functions -fipa-icf-variables -fipa-profile
  43              	@ -fipa-pure-const -fipa-ra -fipa-reference -fipa-reference-addressable
  44              	@ -fipa-sra -fipa-stack-alignment -fipa-vrp -fira-hoist-pressure
  45              	@ -fira-share-save-slots -fira-share-spill-slots
  46              	@ -fisolate-erroneous-paths-dereference -fivopts -fkeep-static-consts
  47              	@ -fleading-underscore -flifetime-dse -flra-remat -flto-odr-type-merging
  48              	@ -fmath-errno -fmerge-constants -fmerge-debug-strings
  49              	@ -fmove-loop-invariants -fomit-frame-pointer -foptimize-sibling-calls
  50              	@ -foptimize-strlen -fpartial-inlining -fpeephole -fpeephole2 -fplt
  51              	@ -fprefetch-loop-arrays -freg-struct-return -freorder-blocks
  52              	@ -freorder-functions -frerun-cse-after-loop
  53              	@ -fsched-critical-path-heuristic -fsched-dep-count-heuristic
  54              	@ -fsched-group-heuristic -fsched-interblock -fsched-last-insn-heuristic
  55              	@ -fsched-pressure -fsched-rank-heuristic -fsched-spec
  56              	@ -fsched-spec-insn-heuristic -fsched-stalled-insns-dep -fschedule-insns
  57              	@ -fschedule-insns2 -fsection-anchors -fsemantic-interposition
ARM GAS  /var/folders/fr/v3bs66k977527trx432fyrqc0000gn/T//ccTJugNk.s 			page 2


  58              	@ -fshow-column -fshrink-wrap -fshrink-wrap-separate -fsigned-zeros
  59              	@ -fsplit-ivs-in-unroller -fsplit-wide-types -fssa-backprop -fssa-phiopt
  60              	@ -fstdarg-opt -fstore-merging -fstrict-aliasing
  61              	@ -fstrict-volatile-bitfields -fsync-libcalls -fthread-jumps
  62              	@ -ftoplevel-reorder -ftrapping-math -ftree-bit-ccp -ftree-builtin-call-dce
  63              	@ -ftree-ccp -ftree-ch -ftree-coalesce-vars -ftree-copy-prop -ftree-cselim
  64              	@ -ftree-dce -ftree-dominator-opts -ftree-dse -ftree-forwprop -ftree-fre
  65              	@ -ftree-loop-if-convert -ftree-loop-im -ftree-loop-ivcanon
  66              	@ -ftree-loop-optimize -ftree-parallelize-loops= -ftree-phiprop -ftree-pre
  67              	@ -ftree-pta -ftree-reassoc -ftree-scev-cprop -ftree-sink -ftree-slsr
  68              	@ -ftree-sra -ftree-switch-conversion -ftree-tail-merge -ftree-ter
  69              	@ -ftree-vrp -funit-at-a-time -fvar-tracking -fvar-tracking-assignments
  70              	@ -fverbose-asm -fzero-initialized-in-bss -masm-syntax-unified -mbe32
  71              	@ -mlittle-endian -mpic-data-is-text-relative -msched-prolog -mthumb
  72              	@ -munaligned-access -mvectorize-with-neon-quad -mword-relocations
  73              	
  74              		.text
  75              	.Ltext0:
  76              		.cfi_sections	.debug_frame
  77              		.section	.rodata.lua_bitmapGetSize.str1.4,"aMS",%progbits,1
  78              		.align	2
  79              	.LC0:
  80 0000 68656269 		.ascii	"hebitmap.bitmap\000"
  80      746D6170 
  80      2E626974 
  80      6D617000 
  81              		.section	.text.lua_bitmapGetSize,"ax",%progbits
  82              		.align	1
  83              		.p2align 4,,15
  84              		.arch armv7e-m
  85              		.syntax unified
  86              		.thumb
  87              		.thumb_func
  88              		.fpu fpv5-sp-d16
  89              		.type	lua_bitmapGetSize, %function
  90              	lua_bitmapGetSize:
  91              	.LVL0:
  92              	.LFB43:
  93              		.file 1 "src/hebitmap.c"
   1:src/hebitmap.c **** //
   2:src/hebitmap.c **** //  hebitmap.c
   3:src/hebitmap.c **** //  HEBitmap
   4:src/hebitmap.c **** //
   5:src/hebitmap.c **** //  Created by Matteo D'Ignazio on 05/11/23.
   6:src/hebitmap.c **** //
   7:src/hebitmap.c **** 
   8:src/hebitmap.c **** #include "hebitmap.h"
   9:src/hebitmap.c **** #include "hebitmap_prv.h"
  10:src/hebitmap.c **** 
  11:src/hebitmap.c **** #include "hebitmap_draw.h" // Opaque
  12:src/hebitmap.c **** #define HEBITMAP_MASK
  13:src/hebitmap.c **** #include "hebitmap_draw.h" // Mask
  14:src/hebitmap.c **** #undef HEBITMAP_MASK
  15:src/hebitmap.c **** 
  16:src/hebitmap.c **** static void buffer_align_8_32(uint8_t *dst, uint8_t *src, int dst_cols, int src_cols, int x, int y,
  17:src/hebitmap.c **** static void get_bounds(uint8_t *mask, int rowbytes, int width, int height, int *bx, int *by, int *b
  18:src/hebitmap.c **** static inline uint32_t bswap32(uint32_t n);
ARM GAS  /var/folders/fr/v3bs66k977527trx432fyrqc0000gn/T//ccTJugNk.s 			page 3


  19:src/hebitmap.c **** static HEBitmap* HEBitmapFromBuffer(uint8_t *buffer, int isOwner, int hasData);
  20:src/hebitmap.c **** static uint32_t read_uint8(uint8_t **buffer_ptr);
  21:src/hebitmap.c **** static uint32_t read_uint32(uint8_t **buffer_ptr);
  22:src/hebitmap.c **** static void allocation_failed(void);
  23:src/hebitmap.c **** 
  24:src/hebitmap.c **** static PlaydateAPI *playdate;
  25:src/hebitmap.c **** 
  26:src/hebitmap.c **** static char *lua_kBitmap = "hebitmap.bitmap";
  27:src/hebitmap.c **** static char *lua_kBitmapTable = "hebitmap.bitmaptable";
  28:src/hebitmap.c **** 
  29:src/hebitmap.c **** static const _HEBitmapRect screenRect = {
  30:src/hebitmap.c ****     .x = 0,
  31:src/hebitmap.c ****     .y = 0,
  32:src/hebitmap.c ****     .width = LCD_COLUMNS,
  33:src/hebitmap.c ****     .height = LCD_ROWS
  34:src/hebitmap.c **** };
  35:src/hebitmap.c **** 
  36:src/hebitmap.c **** HEBitmap* HEBitmapBase(void)
  37:src/hebitmap.c **** {
  38:src/hebitmap.c ****     HEBitmap *bitmap = playdate->system->realloc(NULL, sizeof(HEBitmap));
  39:src/hebitmap.c ****     
  40:src/hebitmap.c ****     _HEBitmap *prv = playdate->system->realloc(NULL, sizeof(_HEBitmap));
  41:src/hebitmap.c ****     bitmap->prv = prv;
  42:src/hebitmap.c ****     
  43:src/hebitmap.c ****     prv->buffer = NULL;
  44:src/hebitmap.c ****     prv->isOwner = 0;
  45:src/hebitmap.c ****     prv->hasData = 0;
  46:src/hebitmap.c ****     prv->bitmapTable = NULL;
  47:src/hebitmap.c ****     
  48:src/hebitmap.c ****     bitmap->width = 0;
  49:src/hebitmap.c ****     bitmap->height = 0;
  50:src/hebitmap.c ****     prv->bx = 0;
  51:src/hebitmap.c ****     prv->by = 0;
  52:src/hebitmap.c ****     prv->bw = 0;
  53:src/hebitmap.c ****     prv->bh = 0;
  54:src/hebitmap.c ****     prv->rowbytes = 0;
  55:src/hebitmap.c ****     
  56:src/hebitmap.c ****     prv->data = NULL;
  57:src/hebitmap.c ****     prv->mask = NULL;
  58:src/hebitmap.c ****     
  59:src/hebitmap.c ****     prv->luaRef = NULL;
  60:src/hebitmap.c ****     prv->luaTableRef = NULL;
  61:src/hebitmap.c **** 
  62:src/hebitmap.c ****     return bitmap;
  63:src/hebitmap.c **** }
  64:src/hebitmap.c **** 
  65:src/hebitmap.c **** HEBitmap* HEBitmapLoad(const char *filename)
  66:src/hebitmap.c **** {
  67:src/hebitmap.c ****     LCDBitmap *lcd_bitmap = playdate->graphics->loadBitmap(filename, NULL);
  68:src/hebitmap.c ****     if(lcd_bitmap)
  69:src/hebitmap.c ****     {
  70:src/hebitmap.c ****         HEBitmap *bitmap = HEBitmapFromLCDBitmap(lcd_bitmap);
  71:src/hebitmap.c ****         playdate->graphics->freeBitmap(lcd_bitmap);
  72:src/hebitmap.c ****         return bitmap;
  73:src/hebitmap.c ****     }
  74:src/hebitmap.c ****     return NULL;
  75:src/hebitmap.c **** }
ARM GAS  /var/folders/fr/v3bs66k977527trx432fyrqc0000gn/T//ccTJugNk.s 			page 4


  76:src/hebitmap.c **** 
  77:src/hebitmap.c **** HEBitmap* _HEBitmapFromLCDBitmap(LCDBitmap *lcd_bitmap, int isOwner)
  78:src/hebitmap.c **** {
  79:src/hebitmap.c ****     int width, height, rowbytes;
  80:src/hebitmap.c ****     uint8_t *lcd_mask, *lcd_data;
  81:src/hebitmap.c ****     playdate->graphics->getBitmapData(lcd_bitmap, &width, &height, &rowbytes, &lcd_mask, &lcd_data)
  82:src/hebitmap.c ****     
  83:src/hebitmap.c ****     if(!lcd_data)
  84:src/hebitmap.c ****     {
  85:src/hebitmap.c ****         return NULL;
  86:src/hebitmap.c ****     }
  87:src/hebitmap.c ****     
  88:src/hebitmap.c ****     int bx, by, bw, bh;
  89:src/hebitmap.c ****     get_bounds(lcd_mask, rowbytes, width, height, &bx, &by, &bw, &bh);
  90:src/hebitmap.c ****     
  91:src/hebitmap.c ****     int rowbytes_aligned = ((bw + 31) / 32) * 4;
  92:src/hebitmap.c ****     size_t data_size = rowbytes_aligned * bh;
  93:src/hebitmap.c ****     
  94:src/hebitmap.c ****     uint8_t *data = playdate->system->realloc(NULL, data_size);
  95:src/hebitmap.c ****     
  96:src/hebitmap.c ****     if(!data)
  97:src/hebitmap.c ****     {
  98:src/hebitmap.c ****         allocation_failed();
  99:src/hebitmap.c ****         return NULL;
 100:src/hebitmap.c ****     }
 101:src/hebitmap.c ****     
 102:src/hebitmap.c ****     uint8_t *mask = NULL;
 103:src/hebitmap.c ****     
 104:src/hebitmap.c ****     if(lcd_mask)
 105:src/hebitmap.c ****     {
 106:src/hebitmap.c ****         mask = playdate->system->realloc(NULL, data_size);
 107:src/hebitmap.c ****         if(!mask)
 108:src/hebitmap.c ****         {
 109:src/hebitmap.c ****             allocation_failed();
 110:src/hebitmap.c ****             playdate->system->realloc(data, 0);
 111:src/hebitmap.c ****             return NULL;
 112:src/hebitmap.c ****         }
 113:src/hebitmap.c ****     }
 114:src/hebitmap.c ****     
 115:src/hebitmap.c ****     HEBitmap *bitmap = HEBitmapBase();
 116:src/hebitmap.c ****     _HEBitmap *prv = bitmap->prv;
 117:src/hebitmap.c ****     
 118:src/hebitmap.c ****     prv->isOwner = isOwner;
 119:src/hebitmap.c ****     prv->hasData = 1;
 120:src/hebitmap.c ****     
 121:src/hebitmap.c ****     prv->bx = bx;
 122:src/hebitmap.c ****     prv->by = by;
 123:src/hebitmap.c ****     prv->bw = bw;
 124:src/hebitmap.c ****     prv->bh = bh;
 125:src/hebitmap.c **** 
 126:src/hebitmap.c ****     bitmap->width = width;
 127:src/hebitmap.c ****     bitmap->height = height;
 128:src/hebitmap.c ****     
 129:src/hebitmap.c ****     prv->rowbytes = rowbytes_aligned;
 130:src/hebitmap.c **** 
 131:src/hebitmap.c ****     prv->data = data;
 132:src/hebitmap.c ****     buffer_align_8_32(prv->data, lcd_data, rowbytes_aligned, rowbytes, bx, by, bw, bh, 0x00);
ARM GAS  /var/folders/fr/v3bs66k977527trx432fyrqc0000gn/T//ccTJugNk.s 			page 5


 133:src/hebitmap.c ****         
 134:src/hebitmap.c ****     prv->mask = mask;
 135:src/hebitmap.c ****     if(prv->mask)
 136:src/hebitmap.c ****     {
 137:src/hebitmap.c ****         buffer_align_8_32(prv->mask, lcd_mask, rowbytes_aligned, rowbytes, bx, by, bw, bh, 0x00);
 138:src/hebitmap.c ****     }
 139:src/hebitmap.c ****     
 140:src/hebitmap.c ****     return bitmap;
 141:src/hebitmap.c **** }
 142:src/hebitmap.c **** 
 143:src/hebitmap.c **** HEBitmap* HEBitmapFromLCDBitmap(LCDBitmap *lcd_bitmap)
 144:src/hebitmap.c **** {
 145:src/hebitmap.c ****     return _HEBitmapFromLCDBitmap(lcd_bitmap, 1);
 146:src/hebitmap.c **** }
 147:src/hebitmap.c **** 
 148:src/hebitmap.c **** HEBitmap* HEBitmapLoadHEB(const char *filename)
 149:src/hebitmap.c **** {
 150:src/hebitmap.c ****     SDFile *file = playdate->file->open(filename, kFileRead);
 151:src/hebitmap.c ****     if(!file)
 152:src/hebitmap.c ****     {
 153:src/hebitmap.c ****         return NULL;
 154:src/hebitmap.c ****     }
 155:src/hebitmap.c ****     
 156:src/hebitmap.c ****     playdate->file->seek(file, 0, SEEK_END);
 157:src/hebitmap.c ****     unsigned int file_size = playdate->file->tell(file);
 158:src/hebitmap.c ****     playdate->file->seek(file, 0, SEEK_SET);
 159:src/hebitmap.c **** 
 160:src/hebitmap.c ****     uint8_t *buffer = playdate->system->realloc(0, file_size);
 161:src/hebitmap.c ****     if(buffer)
 162:src/hebitmap.c ****     {
 163:src/hebitmap.c ****         playdate->file->read(file, buffer, file_size);
 164:src/hebitmap.c ****     }
 165:src/hebitmap.c ****     playdate->file->close(file);
 166:src/hebitmap.c ****     
 167:src/hebitmap.c ****     if(!buffer)
 168:src/hebitmap.c ****     {
 169:src/hebitmap.c ****         allocation_failed();
 170:src/hebitmap.c ****         return NULL;
 171:src/hebitmap.c ****     }
 172:src/hebitmap.c ****     
 173:src/hebitmap.c ****     return HEBitmapFromBuffer(buffer, 1, 1);
 174:src/hebitmap.c **** }
 175:src/hebitmap.c **** 
 176:src/hebitmap.c **** HEBitmap* HEBitmapFromBuffer(uint8_t *buffer, int isOwner, int hasData)
 177:src/hebitmap.c **** {
 178:src/hebitmap.c ****     HEBitmap *bitmap = HEBitmapBase();
 179:src/hebitmap.c ****     _HEBitmap *prv = bitmap->prv;
 180:src/hebitmap.c ****     
 181:src/hebitmap.c ****     prv->buffer = buffer;
 182:src/hebitmap.c ****     prv->isOwner = isOwner;
 183:src/hebitmap.c ****     prv->hasData = hasData;
 184:src/hebitmap.c ****     
 185:src/hebitmap.c ****     uint8_t *buffer_ptr = buffer;
 186:src/hebitmap.c ****     
 187:src/hebitmap.c ****     // read version
 188:src/hebitmap.c ****     uint32_t version = read_uint32(&buffer_ptr);
 189:src/hebitmap.c ****     
ARM GAS  /var/folders/fr/v3bs66k977527trx432fyrqc0000gn/T//ccTJugNk.s 			page 6


 190:src/hebitmap.c ****     bitmap->width = read_uint32(&buffer_ptr);
 191:src/hebitmap.c ****     bitmap->height = read_uint32(&buffer_ptr);
 192:src/hebitmap.c ****     prv->bx = read_uint32(&buffer_ptr);
 193:src/hebitmap.c ****     prv->by = read_uint32(&buffer_ptr);
 194:src/hebitmap.c ****     prv->bw = read_uint32(&buffer_ptr);
 195:src/hebitmap.c ****     prv->bh = read_uint32(&buffer_ptr);
 196:src/hebitmap.c ****     prv->rowbytes = read_uint32(&buffer_ptr);
 197:src/hebitmap.c ****     
 198:src/hebitmap.c ****     uint8_t has_mask = read_uint8(&buffer_ptr);
 199:src/hebitmap.c ****     
 200:src/hebitmap.c ****     if(version >= 2)
 201:src/hebitmap.c ****     {
 202:src/hebitmap.c ****         // version 2 supports padding
 203:src/hebitmap.c ****         uint32_t padding_len = read_uint32(&buffer_ptr);
 204:src/hebitmap.c ****         buffer_ptr += padding_len;
 205:src/hebitmap.c ****     }
 206:src/hebitmap.c ****     
 207:src/hebitmap.c ****     prv->data = buffer_ptr;
 208:src/hebitmap.c ****     
 209:src/hebitmap.c ****     prv->mask = NULL;
 210:src/hebitmap.c ****     if(has_mask)
 211:src/hebitmap.c ****     {
 212:src/hebitmap.c ****         buffer_ptr += prv->rowbytes * prv->bh;
 213:src/hebitmap.c ****         prv->mask = buffer_ptr;
 214:src/hebitmap.c ****     }
 215:src/hebitmap.c ****     
 216:src/hebitmap.c ****     return bitmap;
 217:src/hebitmap.c **** }
 218:src/hebitmap.c **** 
 219:src/hebitmap.c **** void HEBitmapDraw(HEBitmap *bitmap, int x, int y)
 220:src/hebitmap.c **** {
 221:src/hebitmap.c ****     if(((_HEBitmap*)bitmap->prv)->mask)
 222:src/hebitmap.c ****     {
 223:src/hebitmap.c ****         HEBitmapDrawMask(playdate, bitmap, x, y);
 224:src/hebitmap.c ****     }
 225:src/hebitmap.c ****     else
 226:src/hebitmap.c ****     {
 227:src/hebitmap.c ****         HEBitmapDrawOpaque(playdate, bitmap, x, y);
 228:src/hebitmap.c ****     }
 229:src/hebitmap.c **** }
 230:src/hebitmap.c **** 
 231:src/hebitmap.c **** LCDColor HEBitmapColorAt(HEBitmap *bitmap, int x, int y)
 232:src/hebitmap.c **** {
 233:src/hebitmap.c ****     _HEBitmap *prv = bitmap->prv;
 234:src/hebitmap.c ****     
 235:src/hebitmap.c ****     if(x >= prv->bx && x < (prv->bx + prv->bw) && y >= prv->by && y < (prv->by + prv->bh))
 236:src/hebitmap.c ****     {
 237:src/hebitmap.c ****         int src_x = x - prv->bx;
 238:src/hebitmap.c ****         int src_y = y - prv->by;
 239:src/hebitmap.c **** 
 240:src/hebitmap.c ****         int i = src_y * prv->rowbytes + (unsigned int)src_x / 8;
 241:src/hebitmap.c ****         uint8_t bitmask = (1 << (7 - (unsigned int)src_x % 8));
 242:src/hebitmap.c ****         
 243:src/hebitmap.c ****         if(prv->mask && !(prv->mask[i] & bitmask))
 244:src/hebitmap.c ****         {
 245:src/hebitmap.c ****             return kColorClear;
 246:src/hebitmap.c ****         }
ARM GAS  /var/folders/fr/v3bs66k977527trx432fyrqc0000gn/T//ccTJugNk.s 			page 7


 247:src/hebitmap.c ****         else if(prv->data[i] & bitmask)
 248:src/hebitmap.c ****         {
 249:src/hebitmap.c ****             return kColorWhite;
 250:src/hebitmap.c ****         }
 251:src/hebitmap.c ****         else
 252:src/hebitmap.c ****         {
 253:src/hebitmap.c ****             return kColorBlack;
 254:src/hebitmap.c ****         }
 255:src/hebitmap.c ****     }
 256:src/hebitmap.c ****     
 257:src/hebitmap.c ****     return kColorClear;
 258:src/hebitmap.c **** }
 259:src/hebitmap.c **** 
 260:src/hebitmap.c **** void HEBitmapGetData(HEBitmap *bitmap, uint8_t **data, uint8_t **mask, int *rowbytes, int *bx, int 
 261:src/hebitmap.c **** {
 262:src/hebitmap.c ****     _HEBitmap *prv = bitmap->prv;
 263:src/hebitmap.c ****     
 264:src/hebitmap.c ****     if(data)
 265:src/hebitmap.c ****     {
 266:src/hebitmap.c ****         *data = prv->data;
 267:src/hebitmap.c ****     }
 268:src/hebitmap.c ****     if(mask)
 269:src/hebitmap.c ****     {
 270:src/hebitmap.c ****         *mask = prv->mask;
 271:src/hebitmap.c ****     }
 272:src/hebitmap.c ****     
 273:src/hebitmap.c ****     *rowbytes = prv->rowbytes;
 274:src/hebitmap.c ****     *bx = prv->bx;
 275:src/hebitmap.c ****     *by = prv->by;
 276:src/hebitmap.c ****     *bw = prv->bw;
 277:src/hebitmap.c ****     *bh = prv->bh;
 278:src/hebitmap.c **** }
 279:src/hebitmap.c **** 
 280:src/hebitmap.c **** void _HEBitmapFree(HEBitmap *bitmap)
 281:src/hebitmap.c **** {
 282:src/hebitmap.c ****     _HEBitmap *prv = bitmap->prv;
 283:src/hebitmap.c ****     
 284:src/hebitmap.c ****     if(prv->hasData)
 285:src/hebitmap.c ****     {
 286:src/hebitmap.c ****         if(prv->buffer)
 287:src/hebitmap.c ****         {
 288:src/hebitmap.c ****             playdate->system->realloc(prv->buffer, 0);
 289:src/hebitmap.c ****         }
 290:src/hebitmap.c ****         else
 291:src/hebitmap.c ****         {
 292:src/hebitmap.c ****             playdate->system->realloc(prv->data, 0);
 293:src/hebitmap.c ****             if(prv->mask)
 294:src/hebitmap.c ****             {
 295:src/hebitmap.c ****                 playdate->system->realloc(prv->mask, 0);
 296:src/hebitmap.c ****             }
 297:src/hebitmap.c ****         }
 298:src/hebitmap.c ****     }
 299:src/hebitmap.c ****     
 300:src/hebitmap.c ****     playdate->system->realloc(prv, 0);
 301:src/hebitmap.c ****     playdate->system->realloc(bitmap, 0);
 302:src/hebitmap.c **** }
 303:src/hebitmap.c **** 
ARM GAS  /var/folders/fr/v3bs66k977527trx432fyrqc0000gn/T//ccTJugNk.s 			page 8


 304:src/hebitmap.c **** void HEBitmapSetClipRect(int x, int y, int width, int height)
 305:src/hebitmap.c **** {
 306:src/hebitmap.c ****     _clipRect = (_HEBitmapRect){
 307:src/hebitmap.c ****         .x = x,
 308:src/hebitmap.c ****         .y = y,
 309:src/hebitmap.c ****         .width = width,
 310:src/hebitmap.c ****         .height = height
 311:src/hebitmap.c ****     };
 312:src/hebitmap.c ****     clipRect = _clipRect;
 313:src/hebitmap.c ****     
 314:src/hebitmap.c ****     clipRect.width = hebitmap_max(clipRect.width, 0);
 315:src/hebitmap.c ****     clipRect.height = hebitmap_max(clipRect.height, 0);
 316:src/hebitmap.c ****     
 317:src/hebitmap.c ****     if(clipRect.x < 0)
 318:src/hebitmap.c ****     {
 319:src/hebitmap.c ****         int new_width = clipRect.width + clipRect.x;
 320:src/hebitmap.c ****         clipRect.width = hebitmap_max(new_width, 0);
 321:src/hebitmap.c ****         clipRect.x = 0;
 322:src/hebitmap.c ****     }
 323:src/hebitmap.c ****     if(clipRect.y < 0)
 324:src/hebitmap.c ****     {
 325:src/hebitmap.c ****         int new_height = clipRect.height + clipRect.y;
 326:src/hebitmap.c ****         clipRect.height = hebitmap_max(new_height, 0);
 327:src/hebitmap.c ****         clipRect.y = 0;
 328:src/hebitmap.c ****     }
 329:src/hebitmap.c ****     if((clipRect.x + clipRect.width) > LCD_COLUMNS)
 330:src/hebitmap.c ****     {
 331:src/hebitmap.c ****         clipRect.width = LCD_COLUMNS - clipRect.x;
 332:src/hebitmap.c ****     }
 333:src/hebitmap.c ****     if((clipRect.y + clipRect.height) > LCD_ROWS)
 334:src/hebitmap.c ****     {
 335:src/hebitmap.c ****         clipRect.height = LCD_ROWS - clipRect.y;
 336:src/hebitmap.c ****     }
 337:src/hebitmap.c **** }
 338:src/hebitmap.c **** 
 339:src/hebitmap.c **** void HEBitmapClearClipRect(void)
 340:src/hebitmap.c **** {
 341:src/hebitmap.c ****     _clipRect = screenRect;
 342:src/hebitmap.c ****     clipRect = _clipRect;
 343:src/hebitmap.c **** }
 344:src/hebitmap.c **** 
 345:src/hebitmap.c **** void HEBitmapFree(HEBitmap *bitmap)
 346:src/hebitmap.c **** {
 347:src/hebitmap.c ****     _HEBitmap *prv = bitmap->prv;
 348:src/hebitmap.c ****     
 349:src/hebitmap.c ****     if(!prv->isOwner)
 350:src/hebitmap.c ****     {
 351:src/hebitmap.c ****         if(prv->luaTableRef && prv->bitmapTable)
 352:src/hebitmap.c ****         {
 353:src/hebitmap.c ****             HEBitmapTable *bitmapTable = prv->bitmapTable;
 354:src/hebitmap.c ****             _HEBitmapTable *bitmapTablePrv = bitmapTable->prv;
 355:src/hebitmap.c ****             bitmapTablePrv->luaRefCount--;
 356:src/hebitmap.c ****             if(bitmapTablePrv->luaRefCount == 0)
 357:src/hebitmap.c ****             {
 358:src/hebitmap.c ****                 playdate->lua->releaseObject(prv->luaTableRef);
 359:src/hebitmap.c ****             }
 360:src/hebitmap.c ****             else if(bitmapTablePrv->luaRefCount < 0)
ARM GAS  /var/folders/fr/v3bs66k977527trx432fyrqc0000gn/T//ccTJugNk.s 			page 9


 361:src/hebitmap.c ****             {
 362:src/hebitmap.c ****                 bitmapTablePrv->luaRefCount = 0;
 363:src/hebitmap.c ****             }
 364:src/hebitmap.c ****         }
 365:src/hebitmap.c ****         
 366:src/hebitmap.c ****         return;
 367:src/hebitmap.c ****     }
 368:src/hebitmap.c ****     
 369:src/hebitmap.c ****     _HEBitmapFree(bitmap);
 370:src/hebitmap.c **** }
 371:src/hebitmap.c **** 
 372:src/hebitmap.c **** HEBitmapTable* HEBitmapTableBase(void)
 373:src/hebitmap.c **** {
 374:src/hebitmap.c ****     HEBitmapTable *bitmapTable = playdate->system->realloc(NULL, sizeof(HEBitmapTable));
 375:src/hebitmap.c ****     _HEBitmapTable *prv = playdate->system->realloc(NULL, sizeof(_HEBitmapTable));
 376:src/hebitmap.c ****     bitmapTable->prv = prv;
 377:src/hebitmap.c ****     
 378:src/hebitmap.c ****     bitmapTable->length = 0;
 379:src/hebitmap.c ****     prv->buffer = NULL;
 380:src/hebitmap.c ****     prv->bitmaps = NULL;
 381:src/hebitmap.c ****     
 382:src/hebitmap.c ****     prv->luaRefCount = 0;
 383:src/hebitmap.c ****     prv->luaRef = NULL;
 384:src/hebitmap.c **** 
 385:src/hebitmap.c ****     return bitmapTable;
 386:src/hebitmap.c **** }
 387:src/hebitmap.c **** 
 388:src/hebitmap.c **** HEBitmapTable* HEBitmapTableLoad(const char *filename)
 389:src/hebitmap.c **** {
 390:src/hebitmap.c ****     LCDBitmapTable *lcd_bitmapTable = playdate->graphics->loadBitmapTable(filename, NULL);
 391:src/hebitmap.c ****     if(lcd_bitmapTable)
 392:src/hebitmap.c ****     {
 393:src/hebitmap.c ****         HEBitmapTable *bitmapTable = HEBitmapTableFromLCDBitmapTable(lcd_bitmapTable);
 394:src/hebitmap.c ****         playdate->graphics->freeBitmapTable(lcd_bitmapTable);
 395:src/hebitmap.c ****         return bitmapTable;
 396:src/hebitmap.c ****     }
 397:src/hebitmap.c ****     return NULL;
 398:src/hebitmap.c **** }
 399:src/hebitmap.c **** 
 400:src/hebitmap.c **** HEBitmapTable* HEBitmapTableFromLCDBitmapTable(LCDBitmapTable *lcd_bitmapTable)
 401:src/hebitmap.c **** {
 402:src/hebitmap.c ****     HEBitmapTable *bitmapTable = HEBitmapTableBase();
 403:src/hebitmap.c ****     _HEBitmapTable *prv = bitmapTable->prv;
 404:src/hebitmap.c **** 
 405:src/hebitmap.c ****     int length;
 406:src/hebitmap.c ****     playdate->graphics->getBitmapTableInfo(lcd_bitmapTable, &length, NULL);
 407:src/hebitmap.c ****     bitmapTable->length = length;
 408:src/hebitmap.c ****     
 409:src/hebitmap.c ****     prv->bitmaps = playdate->system->realloc(0, length * sizeof(HEBitmap*));
 410:src/hebitmap.c ****     
 411:src/hebitmap.c ****     for(int i = 0; i < length; i++)
 412:src/hebitmap.c ****     {
 413:src/hebitmap.c ****         prv->bitmaps[i] = NULL;
 414:src/hebitmap.c ****     }
 415:src/hebitmap.c ****     
 416:src/hebitmap.c ****     int valid = 1;
 417:src/hebitmap.c ****     
ARM GAS  /var/folders/fr/v3bs66k977527trx432fyrqc0000gn/T//ccTJugNk.s 			page 10


 418:src/hebitmap.c ****     for(int i = 0; i < length; i++)
 419:src/hebitmap.c ****     {
 420:src/hebitmap.c ****         LCDBitmap *lcd_bitmap = playdate->graphics->getTableBitmap(lcd_bitmapTable, i);
 421:src/hebitmap.c ****         HEBitmap *bitmap = _HEBitmapFromLCDBitmap(lcd_bitmap, 0);
 422:src/hebitmap.c ****         if(bitmap)
 423:src/hebitmap.c ****         {
 424:src/hebitmap.c ****             _HEBitmap *bitmapPrv = bitmap->prv;
 425:src/hebitmap.c ****             bitmapPrv->bitmapTable = bitmapTable;
 426:src/hebitmap.c ****             prv->bitmaps[i] = bitmap;
 427:src/hebitmap.c ****         }
 428:src/hebitmap.c ****         else
 429:src/hebitmap.c ****         {
 430:src/hebitmap.c ****             valid = 0;
 431:src/hebitmap.c ****             break;
 432:src/hebitmap.c ****         }
 433:src/hebitmap.c ****     }
 434:src/hebitmap.c ****     
 435:src/hebitmap.c ****     if(!valid)
 436:src/hebitmap.c ****     {
 437:src/hebitmap.c ****         HEBitmapTableFree(bitmapTable);
 438:src/hebitmap.c ****         return NULL;
 439:src/hebitmap.c ****     }
 440:src/hebitmap.c ****     
 441:src/hebitmap.c ****     return bitmapTable;
 442:src/hebitmap.c **** }
 443:src/hebitmap.c **** 
 444:src/hebitmap.c **** HEBitmapTable* HEBitmapTableLoadHEBT(const char *filename)
 445:src/hebitmap.c **** {
 446:src/hebitmap.c ****     SDFile *file = playdate->file->open(filename, kFileRead);
 447:src/hebitmap.c ****     if(!file)
 448:src/hebitmap.c ****     {
 449:src/hebitmap.c ****         return NULL;
 450:src/hebitmap.c ****     }
 451:src/hebitmap.c ****     
 452:src/hebitmap.c ****     playdate->file->seek(file, 0, SEEK_END);
 453:src/hebitmap.c ****     unsigned int file_size = playdate->file->tell(file);
 454:src/hebitmap.c ****     playdate->file->seek(file, 0, SEEK_SET);
 455:src/hebitmap.c **** 
 456:src/hebitmap.c ****     uint8_t *buffer = playdate->system->realloc(0, file_size);
 457:src/hebitmap.c ****     if(buffer)
 458:src/hebitmap.c ****     {
 459:src/hebitmap.c ****         playdate->file->read(file, buffer, file_size);
 460:src/hebitmap.c ****     }
 461:src/hebitmap.c ****     playdate->file->close(file);
 462:src/hebitmap.c ****     
 463:src/hebitmap.c ****     if(!buffer)
 464:src/hebitmap.c ****     {
 465:src/hebitmap.c ****         allocation_failed();
 466:src/hebitmap.c ****         return NULL;
 467:src/hebitmap.c ****     }
 468:src/hebitmap.c ****     
 469:src/hebitmap.c ****     HEBitmapTable *bitmapTable = HEBitmapTableBase();
 470:src/hebitmap.c ****     _HEBitmapTable *prv = bitmapTable->prv;
 471:src/hebitmap.c ****     
 472:src/hebitmap.c ****     prv->buffer = buffer;
 473:src/hebitmap.c ****     
 474:src/hebitmap.c ****     uint8_t *buffer_ptr = buffer;
ARM GAS  /var/folders/fr/v3bs66k977527trx432fyrqc0000gn/T//ccTJugNk.s 			page 11


 475:src/hebitmap.c ****     
 476:src/hebitmap.c ****     // read version
 477:src/hebitmap.c ****     uint32_t version = read_uint32(&buffer_ptr);
 478:src/hebitmap.c ****     
 479:src/hebitmap.c ****     uint32_t length = read_uint32(&buffer_ptr);
 480:src/hebitmap.c ****     prv->bitmaps = playdate->system->realloc(0, length * sizeof(HEBitmap*));
 481:src/hebitmap.c ****     bitmapTable->length = length;
 482:src/hebitmap.c ****     
 483:src/hebitmap.c ****     if(version >= 2)
 484:src/hebitmap.c ****     {
 485:src/hebitmap.c ****         // version 2 supports padding
 486:src/hebitmap.c ****         uint32_t padding_len = read_uint32(&buffer_ptr);
 487:src/hebitmap.c ****         buffer_ptr += padding_len;
 488:src/hebitmap.c ****     }
 489:src/hebitmap.c ****     
 490:src/hebitmap.c ****     for(unsigned int i = 0; i < length; i++)
 491:src/hebitmap.c ****     {
 492:src/hebitmap.c ****         uint32_t bitmap_size = read_uint32(&buffer_ptr);
 493:src/hebitmap.c ****         HEBitmap *bitmap = HEBitmapFromBuffer(buffer_ptr, 0, 0);
 494:src/hebitmap.c ****         prv->bitmaps[i] = bitmap;
 495:src/hebitmap.c ****         buffer_ptr += bitmap_size;
 496:src/hebitmap.c ****     }
 497:src/hebitmap.c ****     
 498:src/hebitmap.c ****     return bitmapTable;
 499:src/hebitmap.c **** }
 500:src/hebitmap.c **** 
 501:src/hebitmap.c **** HEBitmap* HEBitmapAtIndex(HEBitmapTable *bitmapTable, unsigned int index)
 502:src/hebitmap.c **** {
 503:src/hebitmap.c ****     _HEBitmapTable *prv = bitmapTable->prv;
 504:src/hebitmap.c ****     
 505:src/hebitmap.c ****     if(index < bitmapTable->length)
 506:src/hebitmap.c ****     {
 507:src/hebitmap.c ****         HEBitmap *bitmap = prv->bitmaps[index];
 508:src/hebitmap.c ****         _HEBitmap *bitmapPrv = bitmap->prv;
 509:src/hebitmap.c ****         
 510:src/hebitmap.c ****         // check if table is a Lua object
 511:src/hebitmap.c ****         if(prv->luaRef)
 512:src/hebitmap.c ****         {
 513:src/hebitmap.c ****             if(!bitmapPrv->luaTableRef)
 514:src/hebitmap.c ****             {
 515:src/hebitmap.c ****                 if(prv->luaRefCount == 0)
 516:src/hebitmap.c ****                 {
 517:src/hebitmap.c ****                     playdate->lua->retainObject(prv->luaRef);
 518:src/hebitmap.c ****                 }
 519:src/hebitmap.c ****                 bitmapPrv->luaTableRef = prv->luaRef;
 520:src/hebitmap.c ****                 prv->luaRefCount++;
 521:src/hebitmap.c ****             }
 522:src/hebitmap.c ****         }
 523:src/hebitmap.c ****         
 524:src/hebitmap.c ****         return prv->bitmaps[index];
 525:src/hebitmap.c ****     }
 526:src/hebitmap.c ****     
 527:src/hebitmap.c ****     return NULL;
 528:src/hebitmap.c **** }
 529:src/hebitmap.c **** 
 530:src/hebitmap.c **** void HEBitmapTableFree(HEBitmapTable *bitmapTable)
 531:src/hebitmap.c **** {
ARM GAS  /var/folders/fr/v3bs66k977527trx432fyrqc0000gn/T//ccTJugNk.s 			page 12


 532:src/hebitmap.c ****     _HEBitmapTable *prv = bitmapTable->prv;
 533:src/hebitmap.c ****     
 534:src/hebitmap.c ****     for(unsigned int i = 0; i < bitmapTable->length; i++)
 535:src/hebitmap.c ****     {
 536:src/hebitmap.c ****         HEBitmap *bitmap = prv->bitmaps[i];
 537:src/hebitmap.c ****         if(bitmap)
 538:src/hebitmap.c ****         {
 539:src/hebitmap.c ****             _HEBitmapFree(bitmap);
 540:src/hebitmap.c ****         }
 541:src/hebitmap.c ****     }
 542:src/hebitmap.c ****     playdate->system->realloc(prv->bitmaps, 0);
 543:src/hebitmap.c ****     
 544:src/hebitmap.c ****     if(prv->buffer)
 545:src/hebitmap.c ****     {
 546:src/hebitmap.c ****         playdate->system->realloc(prv->buffer, 0);
 547:src/hebitmap.c ****     }
 548:src/hebitmap.c ****     
 549:src/hebitmap.c ****     playdate->system->realloc(prv, 0);
 550:src/hebitmap.c ****     playdate->system->realloc(bitmapTable, 0);
 551:src/hebitmap.c **** }
 552:src/hebitmap.c **** 
 553:src/hebitmap.c **** static void get_bounds(uint8_t *mask, int rowbytes, int width, int height, int *bx, int *by, int *b
 554:src/hebitmap.c **** {
 555:src/hebitmap.c ****     int min_y = 0; int min_x = 0; int max_x = width; int max_y = height;
 556:src/hebitmap.c **** 
 557:src/hebitmap.c ****     if(mask)
 558:src/hebitmap.c ****     {
 559:src/hebitmap.c ****         int min_set = 0;
 560:src/hebitmap.c **** 
 561:src/hebitmap.c ****         max_x = 0;
 562:src/hebitmap.c ****         max_y = 0;
 563:src/hebitmap.c ****         
 564:src/hebitmap.c ****         int src_offset = 0;
 565:src/hebitmap.c ****         
 566:src/hebitmap.c ****         for(int y = 0; y < height; y++)
 567:src/hebitmap.c ****         {
 568:src/hebitmap.c ****             for(int x = 0; x < width; x++)
 569:src/hebitmap.c ****             {
 570:src/hebitmap.c ****                 uint8_t bitmask = 1 << (7 - (unsigned int)x % 8);
 571:src/hebitmap.c ****                 if(mask[src_offset + (unsigned int)x / 8] & bitmask)
 572:src/hebitmap.c ****                 {
 573:src/hebitmap.c ****                     if(!min_set)
 574:src/hebitmap.c ****                     {
 575:src/hebitmap.c ****                         min_x = x;
 576:src/hebitmap.c ****                         min_y = y;
 577:src/hebitmap.c ****                         min_set = 1;
 578:src/hebitmap.c ****                     }
 579:src/hebitmap.c ****                     
 580:src/hebitmap.c ****                     min_y = hebitmap_min(min_y, y);
 581:src/hebitmap.c ****                     int y2 = y + 1;
 582:src/hebitmap.c ****                     max_y = hebitmap_max(max_y, y2);
 583:src/hebitmap.c ****                     
 584:src/hebitmap.c ****                     min_x = hebitmap_min(min_x, x);
 585:src/hebitmap.c ****                     int x2 = x + 1;
 586:src/hebitmap.c ****                     max_x = hebitmap_max(max_x, x2);
 587:src/hebitmap.c ****                 }
 588:src/hebitmap.c ****             }
ARM GAS  /var/folders/fr/v3bs66k977527trx432fyrqc0000gn/T//ccTJugNk.s 			page 13


 589:src/hebitmap.c ****             
 590:src/hebitmap.c ****             src_offset += rowbytes;
 591:src/hebitmap.c ****         }
 592:src/hebitmap.c ****     }
 593:src/hebitmap.c ****     
 594:src/hebitmap.c ****     *bx = min_x; *by = min_y; *bw = max_x - min_x; *bh = max_y - min_y;
 595:src/hebitmap.c **** }
 596:src/hebitmap.c ****     
 597:src/hebitmap.c **** static void buffer_align_8_32(uint8_t *dst, uint8_t *src, int dst_rowbytes, int src_rowbytes, int x
 598:src/hebitmap.c **** {
 599:src/hebitmap.c ****     int src_offset = y * src_rowbytes;
 600:src/hebitmap.c ****     int dst_offset = 0;
 601:src/hebitmap.c ****     int aligned_width = dst_rowbytes * 8;
 602:src/hebitmap.c ****     
 603:src/hebitmap.c ****     for(int dst_y = 0; dst_y < height; dst_y++)
 604:src/hebitmap.c ****     {
 605:src/hebitmap.c ****         for(int dst_x = 0; dst_x < aligned_width; dst_x++)
 606:src/hebitmap.c ****         {
 607:src/hebitmap.c ****             uint8_t value = fill_value;
 608:src/hebitmap.c ****             if(dst_x < width)
 609:src/hebitmap.c ****             {
 610:src/hebitmap.c ****                 int src_x = x + dst_x;
 611:src/hebitmap.c ****                 uint8_t src_bitmask = 1 << (7 - (unsigned int)src_x % 8);
 612:src/hebitmap.c ****                 value = (src[src_offset + (unsigned int)src_x / 8] & src_bitmask);
 613:src/hebitmap.c ****             }
 614:src/hebitmap.c ****             
 615:src/hebitmap.c ****             uint8_t dst_bitmask = 1 << (7 - (unsigned int)dst_x % 8);
 616:src/hebitmap.c ****             uint8_t *dst_ptr = dst + dst_offset + (unsigned int)dst_x / 8;
 617:src/hebitmap.c ****             
 618:src/hebitmap.c ****             if(value)
 619:src/hebitmap.c ****             {
 620:src/hebitmap.c ****                 *dst_ptr |= dst_bitmask;
 621:src/hebitmap.c ****             }
 622:src/hebitmap.c ****             else
 623:src/hebitmap.c ****             {
 624:src/hebitmap.c ****                 *dst_ptr &= ~dst_bitmask;
 625:src/hebitmap.c ****             }
 626:src/hebitmap.c ****         }
 627:src/hebitmap.c ****         
 628:src/hebitmap.c ****         src_offset += src_rowbytes;
 629:src/hebitmap.c ****         dst_offset += dst_rowbytes;
 630:src/hebitmap.c ****     }
 631:src/hebitmap.c **** }
 632:src/hebitmap.c **** 
 633:src/hebitmap.c **** static uint32_t read_uint8(uint8_t **buffer_ptr)
 634:src/hebitmap.c **** {
 635:src/hebitmap.c ****     uint8_t *buffer = *buffer_ptr;
 636:src/hebitmap.c ****     uint8_t value = buffer[0];
 637:src/hebitmap.c ****     *buffer_ptr += 1;
 638:src/hebitmap.c ****     return value;
 639:src/hebitmap.c **** }
 640:src/hebitmap.c **** 
 641:src/hebitmap.c **** static uint32_t read_uint32(uint8_t **buffer_ptr)
 642:src/hebitmap.c **** {
 643:src/hebitmap.c ****     uint8_t *buffer = *buffer_ptr;
 644:src/hebitmap.c ****     uint32_t value = buffer[0] << 24 | buffer[1] << 16 | buffer[2] << 8 | buffer[3];
 645:src/hebitmap.c ****     *buffer_ptr += 4;
ARM GAS  /var/folders/fr/v3bs66k977527trx432fyrqc0000gn/T//ccTJugNk.s 			page 14


 646:src/hebitmap.c ****     return value;
 647:src/hebitmap.c **** }
 648:src/hebitmap.c **** 
 649:src/hebitmap.c **** static void allocation_failed(void)
 650:src/hebitmap.c **** {
 651:src/hebitmap.c ****     playdate->system->logToConsole("HEBitmap: cannot allocate data");
 652:src/hebitmap.c **** }
 653:src/hebitmap.c **** 
 654:src/hebitmap.c **** static int lua_bitmapNew(lua_State *L)
 655:src/hebitmap.c **** {
 656:src/hebitmap.c ****     const char *filename = playdate->lua->getArgString(1);
 657:src/hebitmap.c ****     HEBitmap *bitmap = HEBitmapLoad(filename);
 658:src/hebitmap.c ****     if(bitmap)
 659:src/hebitmap.c ****     {
 660:src/hebitmap.c ****         _HEBitmap *prv = bitmap->prv;
 661:src/hebitmap.c ****         LuaUDObject *luaRef = playdate->lua->pushObject(bitmap, lua_kBitmap, 0);
 662:src/hebitmap.c ****         prv->luaRef = luaRef;
 663:src/hebitmap.c ****     }
 664:src/hebitmap.c ****     else
 665:src/hebitmap.c ****     {
 666:src/hebitmap.c ****         playdate->lua->pushNil();
 667:src/hebitmap.c ****     }
 668:src/hebitmap.c ****     return 1;
 669:src/hebitmap.c **** }
 670:src/hebitmap.c **** 
 671:src/hebitmap.c **** static int lua_bitmapLoadHEB(lua_State *L)
 672:src/hebitmap.c **** {
 673:src/hebitmap.c ****     const char *filename = playdate->lua->getArgString(1);
 674:src/hebitmap.c ****     HEBitmap *bitmap = HEBitmapLoadHEB(filename);
 675:src/hebitmap.c ****     if(bitmap)
 676:src/hebitmap.c ****     {
 677:src/hebitmap.c ****         _HEBitmap *prv = bitmap->prv;
 678:src/hebitmap.c ****         LuaUDObject *luaRef = playdate->lua->pushObject(bitmap, lua_kBitmap, 0);
 679:src/hebitmap.c ****         prv->luaRef = luaRef;
 680:src/hebitmap.c ****     }
 681:src/hebitmap.c ****     else
 682:src/hebitmap.c ****     {
 683:src/hebitmap.c ****         playdate->lua->pushNil();
 684:src/hebitmap.c ****     }
 685:src/hebitmap.c ****     return 1;
 686:src/hebitmap.c **** }
 687:src/hebitmap.c **** 
 688:src/hebitmap.c **** static int lua_bitmapGetSize(lua_State *L)
 689:src/hebitmap.c **** {
  94              		.loc 1 689 1 view -0
  95              		.cfi_startproc
  96              		@ args = 0, pretend = 0, frame = 0
  97              		@ frame_needed = 0, uses_anonymous_args = 0
 690:src/hebitmap.c ****     HEBitmap *bitmap = playdate->lua->getArgObject(1, lua_kBitmap, NULL);
  98              		.loc 1 690 5 view .LVU1
  99              	@ src/hebitmap.c:689: {
 689:src/hebitmap.c ****     HEBitmap *bitmap = playdate->lua->getArgObject(1, lua_kBitmap, NULL);
 100              		.loc 1 689 1 is_stmt 0 view .LVU2
 101 0000 38B5     		push	{r3, r4, r5, lr}	@
 102              	.LCFI0:
 103              		.cfi_def_cfa_offset 16
 104              		.cfi_offset 3, -16
ARM GAS  /var/folders/fr/v3bs66k977527trx432fyrqc0000gn/T//ccTJugNk.s 			page 15


 105              		.cfi_offset 4, -12
 106              		.cfi_offset 5, -8
 107              		.cfi_offset 14, -4
 108              	@ src/hebitmap.c:690:     HEBitmap *bitmap = playdate->lua->getArgObject(1, lua_kBitmap, NULL);
 109              		.loc 1 690 32 view .LVU3
 110 0002 0A4D     		ldr	r5, .L4	@ tmp125,
 111              	@ src/hebitmap.c:690:     HEBitmap *bitmap = playdate->lua->getArgObject(1, lua_kBitmap, NULL);
 112              		.loc 1 690 24 view .LVU4
 113 0004 0022     		movs	r2, #0	@,
 114 0006 0A49     		ldr	r1, .L4+4	@,
 115 0008 0120     		movs	r0, #1	@,
 116              	.LVL1:
 117              	@ src/hebitmap.c:690:     HEBitmap *bitmap = playdate->lua->getArgObject(1, lua_kBitmap, NULL);
 118              		.loc 1 690 32 view .LVU5
 119 000a 2B68     		ldr	r3, [r5]	@ playdate, playdate
 120              	@ src/hebitmap.c:690:     HEBitmap *bitmap = playdate->lua->getArgObject(1, lua_kBitmap, NULL);
 121              		.loc 1 690 37 view .LVU6
 122 000c 9B69     		ldr	r3, [r3, #24]	@ playdate.198_1->lua, playdate.198_1->lua
 123              	@ src/hebitmap.c:690:     HEBitmap *bitmap = playdate->lua->getArgObject(1, lua_kBitmap, NULL);
 124              		.loc 1 690 24 view .LVU7
 125 000e 9B6B     		ldr	r3, [r3, #56]	@ _2->getArgObject, _2->getArgObject
 126 0010 9847     		blx	r3		@ _2->getArgObject
 127              	.LVL2:
 128              	@ src/hebitmap.c:691:     playdate->lua->pushInt(bitmap->width);
 691:src/hebitmap.c ****     playdate->lua->pushInt(bitmap->width);
 129              		.loc 1 691 13 view .LVU8
 130 0012 2B68     		ldr	r3, [r5]	@ playdate, playdate
 131              	@ src/hebitmap.c:690:     HEBitmap *bitmap = playdate->lua->getArgObject(1, lua_kBitmap, NULL);
 690:src/hebitmap.c ****     HEBitmap *bitmap = playdate->lua->getArgObject(1, lua_kBitmap, NULL);
 132              		.loc 1 690 24 view .LVU9
 133 0014 0446     		mov	r4, r0	@ bitmap, tmp140
 134              	.LVL3:
 135              		.loc 1 691 5 is_stmt 1 view .LVU10
 136 0016 4068     		ldr	r0, [r0, #4]	@, bitmap_15->width
 137              	.LVL4:
 138              	@ src/hebitmap.c:691:     playdate->lua->pushInt(bitmap->width);
 139              		.loc 1 691 18 is_stmt 0 view .LVU11
 140 0018 9B69     		ldr	r3, [r3, #24]	@ playdate.200_5->lua, playdate.200_5->lua
 141              	@ src/hebitmap.c:691:     playdate->lua->pushInt(bitmap->width);
 142              		.loc 1 691 5 view .LVU12
 143 001a DB6C     		ldr	r3, [r3, #76]	@ _6->pushInt, _6->pushInt
 144 001c 9847     		blx	r3		@ _6->pushInt
 145              	.LVL5:
 692:src/hebitmap.c ****     playdate->lua->pushInt(bitmap->height);
 146              		.loc 1 692 5 is_stmt 1 view .LVU13
 147              	@ src/hebitmap.c:692:     playdate->lua->pushInt(bitmap->height);
 148              		.loc 1 692 13 is_stmt 0 view .LVU14
 149 001e 2B68     		ldr	r3, [r5]	@ playdate, playdate
 150              	@ src/hebitmap.c:692:     playdate->lua->pushInt(bitmap->height);
 151              		.loc 1 692 5 view .LVU15
 152 0020 A068     		ldr	r0, [r4, #8]	@, bitmap_15->height
 153              	@ src/hebitmap.c:692:     playdate->lua->pushInt(bitmap->height);
 154              		.loc 1 692 18 view .LVU16
 155 0022 9B69     		ldr	r3, [r3, #24]	@ playdate.201_9->lua, playdate.201_9->lua
 156              	@ src/hebitmap.c:692:     playdate->lua->pushInt(bitmap->height);
 157              		.loc 1 692 5 view .LVU17
 158 0024 DB6C     		ldr	r3, [r3, #76]	@ _10->pushInt, _10->pushInt
ARM GAS  /var/folders/fr/v3bs66k977527trx432fyrqc0000gn/T//ccTJugNk.s 			page 16


 159 0026 9847     		blx	r3		@ _10->pushInt
 160              	.LVL6:
 693:src/hebitmap.c ****     return 2;
 161              		.loc 1 693 5 is_stmt 1 view .LVU18
 162              	@ src/hebitmap.c:694: }
 694:src/hebitmap.c **** }
 163              		.loc 1 694 1 is_stmt 0 view .LVU19
 164 0028 0220     		movs	r0, #2	@,
 165 002a 38BD     		pop	{r3, r4, r5, pc}	@
 166              	.LVL7:
 167              	.L5:
 168              		.loc 1 694 1 view .LVU20
 169              		.align	2
 170              	.L4:
 171 002c 00000000 		.word	.LANCHOR0
 172 0030 00000000 		.word	.LC0
 173              		.cfi_endproc
 174              	.LFE43:
 175              		.size	lua_bitmapGetSize, .-lua_bitmapGetSize
 176              		.section	.rodata.lua_bitmapTableLength.str1.4,"aMS",%progbits,1
 177              		.align	2
 178              	.LC1:
 179 0000 68656269 		.ascii	"hebitmap.bitmaptable\000"
 179      746D6170 
 179      2E626974 
 179      6D617074 
 179      61626C65 
 180              		.section	.text.lua_bitmapTableLength,"ax",%progbits
 181              		.align	1
 182              		.p2align 4,,15
 183              		.syntax unified
 184              		.thumb
 185              		.thumb_func
 186              		.fpu fpv5-sp-d16
 187              		.type	lua_bitmapTableLength, %function
 188              	lua_bitmapTableLength:
 189              	.LVL8:
 190              	.LFB50:
 695:src/hebitmap.c **** 
 696:src/hebitmap.c **** static int lua_bitmapColorAt(lua_State *L)
 697:src/hebitmap.c **** {
 698:src/hebitmap.c ****     HEBitmap *bitmap = playdate->lua->getArgObject(1, lua_kBitmap, NULL);
 699:src/hebitmap.c ****     int x = playdate->lua->getArgFloat(2);
 700:src/hebitmap.c ****     int y = playdate->lua->getArgFloat(3);
 701:src/hebitmap.c ****     LCDColor color = HEBitmapColorAt(bitmap, x, y);
 702:src/hebitmap.c ****     int lua_color;
 703:src/hebitmap.c ****     switch(color)
 704:src/hebitmap.c ****     {
 705:src/hebitmap.c ****         case kColorBlack:
 706:src/hebitmap.c ****             lua_color = 1;
 707:src/hebitmap.c ****             break;
 708:src/hebitmap.c ****         case kColorWhite:
 709:src/hebitmap.c ****             lua_color = 2;
 710:src/hebitmap.c ****             break;
 711:src/hebitmap.c ****         default:
 712:src/hebitmap.c ****             lua_color = 3;
 713:src/hebitmap.c ****             break;
ARM GAS  /var/folders/fr/v3bs66k977527trx432fyrqc0000gn/T//ccTJugNk.s 			page 17


 714:src/hebitmap.c ****     }
 715:src/hebitmap.c ****     playdate->lua->pushInt(lua_color);
 716:src/hebitmap.c ****     return 1;
 717:src/hebitmap.c **** }
 718:src/hebitmap.c **** 
 719:src/hebitmap.c **** static int lua_bitmapDraw(lua_State *L)
 720:src/hebitmap.c **** {
 721:src/hebitmap.c ****     HEBitmap *bitmap = playdate->lua->getArgObject(1, lua_kBitmap, NULL);
 722:src/hebitmap.c ****     int x = playdate->lua->getArgFloat(2);
 723:src/hebitmap.c ****     int y = playdate->lua->getArgFloat(3);
 724:src/hebitmap.c ****     HEBitmapDraw(bitmap, x, y);
 725:src/hebitmap.c ****     return 0;
 726:src/hebitmap.c **** }
 727:src/hebitmap.c **** 
 728:src/hebitmap.c **** static int lua_freeBitmap(lua_State *L)
 729:src/hebitmap.c **** {
 730:src/hebitmap.c ****     HEBitmap *bitmap = playdate->lua->getArgObject(1, lua_kBitmap, NULL);
 731:src/hebitmap.c ****     HEBitmapFree(bitmap);
 732:src/hebitmap.c ****     return 0;
 733:src/hebitmap.c **** }
 734:src/hebitmap.c **** 
 735:src/hebitmap.c **** static const lua_reg lua_bitmap[] = {
 736:src/hebitmap.c ****     { "new", lua_bitmapNew },
 737:src/hebitmap.c ****     { "loadHEB", lua_bitmapLoadHEB },
 738:src/hebitmap.c ****     { "getSize", lua_bitmapGetSize },
 739:src/hebitmap.c ****     { "_colorAt", lua_bitmapColorAt },
 740:src/hebitmap.c ****     { "draw", lua_bitmapDraw },
 741:src/hebitmap.c ****     { "__gc", lua_freeBitmap },
 742:src/hebitmap.c ****     { NULL, NULL }
 743:src/hebitmap.c **** };
 744:src/hebitmap.c **** 
 745:src/hebitmap.c **** static int lua_bitmapTableNew(lua_State *L)
 746:src/hebitmap.c **** {
 747:src/hebitmap.c ****     const char *filename = playdate->lua->getArgString(1);
 748:src/hebitmap.c ****     HEBitmapTable *bitmapTable = HEBitmapTableLoad(filename);
 749:src/hebitmap.c ****     if(bitmapTable)
 750:src/hebitmap.c ****     {
 751:src/hebitmap.c ****         _HEBitmapTable *prv = bitmapTable->prv;
 752:src/hebitmap.c ****         LuaUDObject *luaRef = playdate->lua->pushObject(bitmapTable, lua_kBitmapTable, 0);
 753:src/hebitmap.c ****         prv->luaRef = luaRef;
 754:src/hebitmap.c ****     }
 755:src/hebitmap.c ****     else
 756:src/hebitmap.c ****     {
 757:src/hebitmap.c ****         playdate->lua->pushNil();
 758:src/hebitmap.c ****     }
 759:src/hebitmap.c ****     return 1;
 760:src/hebitmap.c **** }
 761:src/hebitmap.c **** 
 762:src/hebitmap.c **** static int lua_bitmapTableLoadHEBT(lua_State *L)
 763:src/hebitmap.c **** {
 764:src/hebitmap.c ****     const char *filename = playdate->lua->getArgString(1);
 765:src/hebitmap.c ****     HEBitmapTable *bitmapTable = HEBitmapTableLoadHEBT(filename);
 766:src/hebitmap.c ****     if(bitmapTable)
 767:src/hebitmap.c ****     {
 768:src/hebitmap.c ****         _HEBitmapTable *prv = bitmapTable->prv;
 769:src/hebitmap.c ****         LuaUDObject *luaRef = playdate->lua->pushObject(bitmapTable, lua_kBitmapTable, 0);
 770:src/hebitmap.c ****         prv->luaRef = luaRef;
ARM GAS  /var/folders/fr/v3bs66k977527trx432fyrqc0000gn/T//ccTJugNk.s 			page 18


 771:src/hebitmap.c ****     }
 772:src/hebitmap.c ****     else
 773:src/hebitmap.c ****     {
 774:src/hebitmap.c ****         playdate->lua->pushNil();
 775:src/hebitmap.c ****     }
 776:src/hebitmap.c ****     return 1;
 777:src/hebitmap.c **** }
 778:src/hebitmap.c **** 
 779:src/hebitmap.c **** static int lua_bitmapAtIndex(lua_State *L)
 780:src/hebitmap.c **** {
 781:src/hebitmap.c ****     HEBitmapTable *bitmapTable = playdate->lua->getArgObject(1, lua_kBitmapTable, NULL);
 782:src/hebitmap.c ****     int index = (int)playdate->lua->getArgFloat(2) - 1;
 783:src/hebitmap.c ****     
 784:src/hebitmap.c ****     HEBitmap *bitmap = NULL;
 785:src/hebitmap.c ****     if(index >= 0)
 786:src/hebitmap.c ****     {
 787:src/hebitmap.c ****         bitmap = HEBitmapAtIndex(bitmapTable, index);
 788:src/hebitmap.c ****     }
 789:src/hebitmap.c ****     if(bitmap)
 790:src/hebitmap.c ****     {
 791:src/hebitmap.c ****         _HEBitmap *bitmapPrv = bitmap->prv;
 792:src/hebitmap.c ****         LuaUDObject *luaRef = playdate->lua->pushObject(bitmap, lua_kBitmap, 0);
 793:src/hebitmap.c ****         bitmapPrv->luaRef = luaRef;
 794:src/hebitmap.c ****     }
 795:src/hebitmap.c ****     else
 796:src/hebitmap.c ****     {
 797:src/hebitmap.c ****         playdate->lua->pushNil();
 798:src/hebitmap.c ****     }
 799:src/hebitmap.c ****     return 1;
 800:src/hebitmap.c **** }
 801:src/hebitmap.c **** 
 802:src/hebitmap.c **** static int lua_bitmapTableLength(lua_State *L)
 803:src/hebitmap.c **** {
 191              		.loc 1 803 1 is_stmt 1 view -0
 192              		.cfi_startproc
 193              		@ args = 0, pretend = 0, frame = 0
 194              		@ frame_needed = 0, uses_anonymous_args = 0
 804:src/hebitmap.c ****     HEBitmapTable *bitmapTable = playdate->lua->getArgObject(1, lua_kBitmapTable, NULL);
 195              		.loc 1 804 5 view .LVU22
 196              	@ src/hebitmap.c:803: {
 803:src/hebitmap.c ****     HEBitmapTable *bitmapTable = playdate->lua->getArgObject(1, lua_kBitmapTable, NULL);
 197              		.loc 1 803 1 is_stmt 0 view .LVU23
 198 0000 10B5     		push	{r4, lr}	@
 199              	.LCFI1:
 200              		.cfi_def_cfa_offset 8
 201              		.cfi_offset 4, -8
 202              		.cfi_offset 14, -4
 203              	@ src/hebitmap.c:804:     HEBitmapTable *bitmapTable = playdate->lua->getArgObject(1, lua_kBitmapTa
 204              		.loc 1 804 42 view .LVU24
 205 0002 074C     		ldr	r4, .L8	@ tmp122,
 206              	@ src/hebitmap.c:804:     HEBitmapTable *bitmapTable = playdate->lua->getArgObject(1, lua_kBitmapTa
 207              		.loc 1 804 34 view .LVU25
 208 0004 0022     		movs	r2, #0	@,
 209 0006 0749     		ldr	r1, .L8+4	@,
 210 0008 0120     		movs	r0, #1	@,
 211              	.LVL9:
 212              	@ src/hebitmap.c:804:     HEBitmapTable *bitmapTable = playdate->lua->getArgObject(1, lua_kBitmapTa
ARM GAS  /var/folders/fr/v3bs66k977527trx432fyrqc0000gn/T//ccTJugNk.s 			page 19


 213              		.loc 1 804 42 view .LVU26
 214 000a 2368     		ldr	r3, [r4]	@ playdate, playdate
 215              	@ src/hebitmap.c:804:     HEBitmapTable *bitmapTable = playdate->lua->getArgObject(1, lua_kBitmapTa
 216              		.loc 1 804 47 view .LVU27
 217 000c 9B69     		ldr	r3, [r3, #24]	@ playdate.169_1->lua, playdate.169_1->lua
 218              	@ src/hebitmap.c:804:     HEBitmapTable *bitmapTable = playdate->lua->getArgObject(1, lua_kBitmapTa
 219              		.loc 1 804 34 view .LVU28
 220 000e 9B6B     		ldr	r3, [r3, #56]	@ _2->getArgObject, _2->getArgObject
 221 0010 9847     		blx	r3		@ _2->getArgObject
 222              	.LVL10:
 805:src/hebitmap.c ****     playdate->lua->pushInt(bitmapTable->length);
 223              		.loc 1 805 5 is_stmt 1 view .LVU29
 224              	@ src/hebitmap.c:805:     playdate->lua->pushInt(bitmapTable->length);
 225              		.loc 1 805 13 is_stmt 0 view .LVU30
 226 0012 2368     		ldr	r3, [r4]	@ playdate, playdate
 227              	@ src/hebitmap.c:805:     playdate->lua->pushInt(bitmapTable->length);
 228              		.loc 1 805 5 view .LVU31
 229 0014 4068     		ldr	r0, [r0, #4]	@, bitmapTable_12->length
 230              	.LVL11:
 231              	@ src/hebitmap.c:805:     playdate->lua->pushInt(bitmapTable->length);
 232              		.loc 1 805 18 view .LVU32
 233 0016 9B69     		ldr	r3, [r3, #24]	@ playdate.171_5->lua, playdate.171_5->lua
 234              	@ src/hebitmap.c:805:     playdate->lua->pushInt(bitmapTable->length);
 235              		.loc 1 805 5 view .LVU33
 236 0018 DB6C     		ldr	r3, [r3, #76]	@ _6->pushInt, _6->pushInt
 237 001a 9847     		blx	r3		@ _6->pushInt
 238              	.LVL12:
 806:src/hebitmap.c ****     return 1;
 239              		.loc 1 806 5 is_stmt 1 view .LVU34
 240              	@ src/hebitmap.c:807: }
 807:src/hebitmap.c **** }
 241              		.loc 1 807 1 is_stmt 0 view .LVU35
 242 001c 0120     		movs	r0, #1	@,
 243 001e 10BD     		pop	{r4, pc}	@
 244              	.L9:
 245              		.align	2
 246              	.L8:
 247 0020 00000000 		.word	.LANCHOR0
 248 0024 00000000 		.word	.LC1
 249              		.cfi_endproc
 250              	.LFE50:
 251              		.size	lua_bitmapTableLength, .-lua_bitmapTableLength
 252              		.section	.text.lua_bitmapNew.part.0,"ax",%progbits
 253              		.align	1
 254              		.p2align 4,,15
 255              		.syntax unified
 256              		.thumb
 257              		.thumb_func
 258              		.fpu fpv5-sp-d16
 259              		.type	lua_bitmapNew.part.0, %function
 260              	lua_bitmapNew.part.0:
 261              	.LFB55:
 654:src/hebitmap.c **** {
 262              		.loc 1 654 12 is_stmt 1 view -0
 263              		.cfi_startproc
 264              		@ args = 0, pretend = 0, frame = 0
 265              		@ frame_needed = 0, uses_anonymous_args = 0
ARM GAS  /var/folders/fr/v3bs66k977527trx432fyrqc0000gn/T//ccTJugNk.s 			page 20


 266              		@ link register save eliminated.
 267              	.LVL13:
 666:src/hebitmap.c ****     }
 268              		.loc 1 666 9 view .LVU37
 269              	@ src/hebitmap.c:666:         playdate->lua->pushNil();
 666:src/hebitmap.c ****     }
 270              		.loc 1 666 17 is_stmt 0 view .LVU38
 271 0000 024B     		ldr	r3, .L11	@ tmp113,
 272 0002 1B68     		ldr	r3, [r3]	@ playdate, playdate
 273              	@ src/hebitmap.c:666:         playdate->lua->pushNil();
 666:src/hebitmap.c ****     }
 274              		.loc 1 666 22 view .LVU39
 275 0004 9B69     		ldr	r3, [r3, #24]	@ playdate.209_1->lua, playdate.209_1->lua
 276              	@ src/hebitmap.c:666:         playdate->lua->pushNil();
 666:src/hebitmap.c ****     }
 277              		.loc 1 666 9 view .LVU40
 278 0006 5B6C     		ldr	r3, [r3, #68]	@ _2->pushNil, _2->pushNil
 279 0008 1847     		bx	r3	@ indirect register sibling call	@ _2->pushNil
 280              	.LVL14:
 281              	.L12:
 282 000a 00BF     		.align	2
 283              	.L11:
 284 000c 00000000 		.word	.LANCHOR0
 285              		.cfi_endproc
 286              	.LFE55:
 287              		.size	lua_bitmapNew.part.0, .-lua_bitmapNew.part.0
 288              		.thumb_set lua_bitmapTableNew.part.0,lua_bitmapNew.part.0
 289              		.thumb_set lua_bitmapTableLoadHEBT.part.0,lua_bitmapNew.part.0
 290              		.thumb_set lua_bitmapLoadHEB.part.0,lua_bitmapNew.part.0
 291              		.section	.text.buffer_align_8_32.constprop.0,"ax",%progbits
 292              		.align	1
 293              		.p2align 4,,15
 294              		.syntax unified
 295              		.thumb
 296              		.thumb_func
 297              		.fpu fpv5-sp-d16
 298              		.type	buffer_align_8_32.constprop.0, %function
 299              	buffer_align_8_32.constprop.0:
 300              	.LVL15:
 301              	.LFB60:
 597:src/hebitmap.c **** {
 302              		.loc 1 597 13 is_stmt 1 view -0
 303              		.cfi_startproc
 304              		@ args = 16, pretend = 0, frame = 32
 305              		@ frame_needed = 0, uses_anonymous_args = 0
 599:src/hebitmap.c ****     int dst_offset = 0;
 306              		.loc 1 599 5 view .LVU42
 307              	@ src/hebitmap.c:597: static void buffer_align_8_32(uint8_t *dst, uint8_t *src, int dst_rowbytes, i
 597:src/hebitmap.c **** {
 308              		.loc 1 597 13 is_stmt 0 view .LVU43
 309 0000 2DE9F04F 		push	{r4, r5, r6, r7, r8, r9, r10, fp, lr}	@
 310              	.LCFI2:
 311              		.cfi_def_cfa_offset 36
 312              		.cfi_offset 4, -36
 313              		.cfi_offset 5, -32
 314              		.cfi_offset 6, -28
 315              		.cfi_offset 7, -24
ARM GAS  /var/folders/fr/v3bs66k977527trx432fyrqc0000gn/T//ccTJugNk.s 			page 21


 316              		.cfi_offset 8, -20
 317              		.cfi_offset 9, -16
 318              		.cfi_offset 10, -12
 319              		.cfi_offset 11, -8
 320              		.cfi_offset 14, -4
 321 0004 89B0     		sub	sp, sp, #36	@,,
 322              	.LCFI3:
 323              		.cfi_def_cfa_offset 72
 324              	@ src/hebitmap.c:597: static void buffer_align_8_32(uint8_t *dst, uint8_t *src, int dst_rowbytes, i
 597:src/hebitmap.c **** {
 325              		.loc 1 597 13 view .LVU44
 326 0006 1C46     		mov	r4, r3	@ src_rowbytes, tmp206
 327 0008 0693     		str	r3, [sp, #24]	@ src_rowbytes, %sfp
 328 000a 139B     		ldr	r3, [sp, #76]	@ y, y
 329              	.LVL16:
 597:src/hebitmap.c **** {
 330              		.loc 1 597 13 view .LVU45
 331 000c 0592     		str	r2, [sp, #20]	@ dst_rowbytes, %sfp
 332              	@ src/hebitmap.c:599:     int src_offset = y * src_rowbytes;
 599:src/hebitmap.c ****     int dst_offset = 0;
 333              		.loc 1 599 9 view .LVU46
 334 000e 04FB03F3 		mul	r3, r4, r3	@ src_offset, src_rowbytes, y
 335              	@ src/hebitmap.c:597: static void buffer_align_8_32(uint8_t *dst, uint8_t *src, int dst_rowbytes, i
 597:src/hebitmap.c **** {
 336              		.loc 1 597 13 view .LVU47
 337 0012 0791     		str	r1, [sp, #28]	@ tmp204, %sfp
 338              	@ src/hebitmap.c:599:     int src_offset = y * src_rowbytes;
 599:src/hebitmap.c ****     int dst_offset = 0;
 339              		.loc 1 599 9 view .LVU48
 340 0014 0393     		str	r3, [sp, #12]	@ src_offset, %sfp
 341              	.LVL17:
 600:src/hebitmap.c ****     int aligned_width = dst_rowbytes * 8;
 342              		.loc 1 600 5 is_stmt 1 view .LVU49
 601:src/hebitmap.c ****     
 343              		.loc 1 601 5 view .LVU50
 603:src/hebitmap.c ****     {
 344              		.loc 1 603 5 view .LVU51
 345              	.LBB158:
 603:src/hebitmap.c ****     {
 346              		.loc 1 603 9 view .LVU52
 603:src/hebitmap.c ****     {
 347              		.loc 1 603 24 view .LVU53
 348              	@ src/hebitmap.c:603:     for(int dst_y = 0; dst_y < height; dst_y++)
 603:src/hebitmap.c ****     {
 349              		.loc 1 603 5 is_stmt 0 view .LVU54
 350 0016 159B     		ldr	r3, [sp, #84]	@ tmp226, height
 351              	.LVL18:
 603:src/hebitmap.c ****     {
 352              		.loc 1 603 5 view .LVU55
 353 0018 002B     		cmp	r3, #0	@ tmp226,
 354 001a 4BDD     		ble	.L13		@,
 355              	@ src/hebitmap.c:603:     for(int dst_y = 0; dst_y < height; dst_y++)
 603:src/hebitmap.c ****     {
 356              		.loc 1 603 13 view .LVU56
 357 001c 0023     		movs	r3, #0	@ dst_y,
 358 001e 4FEAC20A 		lsl	r10, r2, #3	@ aligned_width, dst_rowbytes,
 359              	.LVL19:
ARM GAS  /var/folders/fr/v3bs66k977527trx432fyrqc0000gn/T//ccTJugNk.s 			page 22


 360              	.LBB159:
 361              	.LBB160:
 362              	.LBB161:
 363              	@ src/hebitmap.c:611:                 uint8_t src_bitmask = 1 << (7 - (unsigned int)src_x % 8);
 611:src/hebitmap.c ****                 value = (src[src_offset + (unsigned int)src_x / 8] & src_bitmask);
 364              		.loc 1 611 47 view .LVU57
 365 0022 129A     		ldr	r2, [sp, #72]	@ tmp249, x
 366              	.LVL20:
 611:src/hebitmap.c ****                 value = (src[src_offset + (unsigned int)src_x / 8] & src_bitmask);
 367              		.loc 1 611 47 view .LVU58
 368              	.LBE161:
 369              	@ src/hebitmap.c:615:             uint8_t dst_bitmask = 1 << (7 - (unsigned int)dst_x % 8);
 615:src/hebitmap.c ****             uint8_t *dst_ptr = dst + dst_offset + (unsigned int)dst_x / 8;
 370              		.loc 1 615 37 view .LVU59
 371 0024 0127     		movs	r7, #1	@ tmp198,
 372              	.LBE160:
 373              	.LBE159:
 374              	.LBE158:
 375              	@ src/hebitmap.c:600:     int dst_offset = 0;
 600:src/hebitmap.c ****     int aligned_width = dst_rowbytes * 8;
 376              		.loc 1 600 9 view .LVU60
 377 0026 9846     		mov	r8, r3	@ dst_offset, dst_y
 378              	.LBB181:
 379              	@ src/hebitmap.c:603:     for(int dst_y = 0; dst_y < height; dst_y++)
 603:src/hebitmap.c ****     {
 380              		.loc 1 603 13 view .LVU61
 381 0028 0493     		str	r3, [sp, #16]	@ dst_y, %sfp
 382              	.LBB180:
 383              	.LBB172:
 384              	.LBB162:
 385              	@ src/hebitmap.c:611:                 uint8_t src_bitmask = 1 << (7 - (unsigned int)src_x % 8);
 611:src/hebitmap.c ****                 value = (src[src_offset + (unsigned int)src_x / 8] & src_bitmask);
 386              		.loc 1 611 47 view .LVU62
 387 002a 6FEA020B 		mvn	fp, r2	@ tmp199, tmp249
 388              	.LVL21:
 389              	.L14:
 611:src/hebitmap.c ****                 value = (src[src_offset + (unsigned int)src_x / 8] & src_bitmask);
 390              		.loc 1 611 47 view .LVU63
 391              	.LBE162:
 392              	.LBE172:
 605:src/hebitmap.c ****         {
 393              		.loc 1 605 28 is_stmt 1 view .LVU64
 394              	@ src/hebitmap.c:605:         for(int dst_x = 0; dst_x < aligned_width; dst_x++)
 605:src/hebitmap.c ****         {
 395              		.loc 1 605 9 is_stmt 0 view .LVU65
 396 002e BAF1000F 		cmp	r10, #0	@ aligned_width,
 397 0032 33DD     		ble	.L20		@,
 398              	.LBB173:
 399              	.LBB163:
 400              	@ src/hebitmap.c:612:                 value = (src[src_offset + (unsigned int)src_x / 8] & src_bitm
 612:src/hebitmap.c ****             }
 401              		.loc 1 612 29 view .LVU66
 402 0034 079A     		ldr	r2, [sp, #28]	@ src, %sfp
 403              	.LBE163:
 404              	.LBE173:
 405              	@ src/hebitmap.c:605:         for(int dst_x = 0; dst_x < aligned_width; dst_x++)
 605:src/hebitmap.c ****         {
ARM GAS  /var/folders/fr/v3bs66k977527trx432fyrqc0000gn/T//ccTJugNk.s 			page 23


 406              		.loc 1 605 17 view .LVU67
 407 0036 0023     		movs	r3, #0	@ dst_x,
 408              	.LBB174:
 409              	.LBB164:
 410              	@ src/hebitmap.c:612:                 value = (src[src_offset + (unsigned int)src_x / 8] & src_bitm
 612:src/hebitmap.c ****             }
 411              		.loc 1 612 29 view .LVU68
 412 0038 0399     		ldr	r1, [sp, #12]	@ src_offset, %sfp
 413 003a 0A44     		add	r2, r2, r1	@ tmp196, src_offset
 414 003c 0292     		str	r2, [sp, #8]	@ tmp196, %sfp
 415 003e 0CE0     		b	.L19		@
 416              	.LVL22:
 417              	.L28:
 418              	@ src/hebitmap.c:612:                 value = (src[src_offset + (unsigned int)src_x / 8] & src_bitm
 612:src/hebitmap.c ****             }
 419              		.loc 1 612 23 view .LVU69
 420 0040 DDE90154 		ldrd	r5, r4, [sp, #4]	@ tmp170, tmp196,,
 421 0044 645D     		ldrb	r4, [r4, r5]	@ zero_extendqisi2	@ *_20, *_20
 422              	.LBE164:
 423              	@ src/hebitmap.c:618:             if(value)
 618:src/hebitmap.c ****             {
 424              		.loc 1 618 15 view .LVU70
 425 0046 0C42     		tst	r4, r1	@ *_20, tmp176
 426 0048 1FD0     		beq	.L17		@,
 427              	@ src/hebitmap.c:620:                 *dst_ptr |= dst_bitmask;
 620:src/hebitmap.c ****             }
 428              		.loc 1 620 26 view .LVU71
 429 004a 825D     		ldrb	r2, [r0, r6]	@ zero_extendqisi2	@ *dst_ptr_33, *dst_ptr_33
 430              	.LBE174:
 431              	@ src/hebitmap.c:605:         for(int dst_x = 0; dst_x < aligned_width; dst_x++)
 605:src/hebitmap.c ****         {
 432              		.loc 1 605 56 view .LVU72
 433 004c 0133     		adds	r3, r3, #1	@ dst_x, dst_x,
 434              	.LVL23:
 435              	.LBB175:
 436              	@ src/hebitmap.c:620:                 *dst_ptr |= dst_bitmask;
 620:src/hebitmap.c ****             }
 437              		.loc 1 620 26 view .LVU73
 438 004e 4EEA020E 		orr	lr, lr, r2	@ tmp186, dst_bitmask, *dst_ptr_33
 439              	.LVL24:
 620:src/hebitmap.c ****             }
 440              		.loc 1 620 26 view .LVU74
 441              	.LBE175:
 442              	@ src/hebitmap.c:605:         for(int dst_x = 0; dst_x < aligned_width; dst_x++)
 605:src/hebitmap.c ****         {
 443              		.loc 1 605 9 view .LVU75
 444 0052 9A45     		cmp	r10, r3	@ aligned_width, dst_x
 445              	.LBB176:
 446              	@ src/hebitmap.c:620:                 *dst_ptr |= dst_bitmask;
 620:src/hebitmap.c ****             }
 447              		.loc 1 620 26 view .LVU76
 448 0054 00F806E0 		strb	lr, [r0, r6]	@ tmp186, *dst_ptr_33
 449              	.LBE176:
 605:src/hebitmap.c ****         {
 450              		.loc 1 605 51 is_stmt 1 view .LVU77
 451              	.LVL25:
 605:src/hebitmap.c ****         {
ARM GAS  /var/folders/fr/v3bs66k977527trx432fyrqc0000gn/T//ccTJugNk.s 			page 24


 452              		.loc 1 605 28 view .LVU78
 453              	@ src/hebitmap.c:605:         for(int dst_x = 0; dst_x < aligned_width; dst_x++)
 605:src/hebitmap.c ****         {
 454              		.loc 1 605 9 is_stmt 0 view .LVU79
 455 0058 20D0     		beq	.L20		@,
 456              	.LVL26:
 457              	.L19:
 458              	.LBB177:
 607:src/hebitmap.c ****             if(dst_x < width)
 459              		.loc 1 607 13 is_stmt 1 view .LVU80
 608:src/hebitmap.c ****             {
 460              		.loc 1 608 13 view .LVU81
 615:src/hebitmap.c ****             uint8_t *dst_ptr = dst + dst_offset + (unsigned int)dst_x / 8;
 461              		.loc 1 615 13 view .LVU82
 462              	.LBB165:
 610:src/hebitmap.c ****                 uint8_t src_bitmask = 1 << (7 - (unsigned int)src_x % 8);
 463              		.loc 1 610 17 view .LVU83
 611:src/hebitmap.c ****                 value = (src[src_offset + (unsigned int)src_x / 8] & src_bitmask);
 464              		.loc 1 611 17 view .LVU84
 612:src/hebitmap.c ****             }
 465              		.loc 1 612 17 view .LVU85
 612:src/hebitmap.c ****             }
 466              		.loc 1 612 17 is_stmt 0 view .LVU86
 467              	.LBE165:
 615:src/hebitmap.c ****             uint8_t *dst_ptr = dst + dst_offset + (unsigned int)dst_x / 8;
 468              		.loc 1 615 13 is_stmt 1 view .LVU87
 620:src/hebitmap.c ****             }
 469              		.loc 1 620 17 view .LVU88
 470              	.LBB166:
 471              	@ src/hebitmap.c:612:                 value = (src[src_offset + (unsigned int)src_x / 8] & src_bitm
 612:src/hebitmap.c ****             }
 472              		.loc 1 612 63 is_stmt 0 view .LVU89
 473 005a 1299     		ldr	r1, [sp, #72]	@ tmp230, x
 474              	.LBE166:
 475              	@ src/hebitmap.c:615:             uint8_t dst_bitmask = 1 << (7 - (unsigned int)dst_x % 8);
 615:src/hebitmap.c ****             uint8_t *dst_ptr = dst + dst_offset + (unsigned int)dst_x / 8;
 476              		.loc 1 615 43 view .LVU90
 477 005c DA43     		mvns	r2, r3	@ tmp164, dst_x
 478              	@ src/hebitmap.c:616:             uint8_t *dst_ptr = dst + dst_offset + (unsigned int)dst_x / 8;
 616:src/hebitmap.c ****             
 479              		.loc 1 616 49 view .LVU91
 480 005e 08EBD306 		add	r6, r8, r3, lsr #3	@ tmp168, dst_offset, dst_x,
 481              	.LBB167:
 482              	@ src/hebitmap.c:612:                 value = (src[src_offset + (unsigned int)src_x / 8] & src_bitm
 612:src/hebitmap.c ****             }
 483              		.loc 1 612 63 view .LVU92
 484 0062 5D18     		adds	r5, r3, r1	@ tmp169, dst_x, tmp230
 485              	.LVL27:
 612:src/hebitmap.c ****             }
 486              		.loc 1 612 63 view .LVU93
 487              	.LBE167:
 488              	@ src/hebitmap.c:615:             uint8_t dst_bitmask = 1 << (7 - (unsigned int)dst_x % 8);
 615:src/hebitmap.c ****             uint8_t *dst_ptr = dst + dst_offset + (unsigned int)dst_x / 8;
 489              		.loc 1 615 43 view .LVU94
 490 0064 02F00702 		and	r2, r2, #7	@ tmp165, tmp164,
 491              	.LBB168:
 492              	@ src/hebitmap.c:611:                 uint8_t src_bitmask = 1 << (7 - (unsigned int)src_x % 8);
ARM GAS  /var/folders/fr/v3bs66k977527trx432fyrqc0000gn/T//ccTJugNk.s 			page 25


 611:src/hebitmap.c ****                 value = (src[src_offset + (unsigned int)src_x / 8] & src_bitmask);
 493              		.loc 1 611 47 view .LVU95
 494 0068 ABEB0301 		sub	r1, fp, r3	@ tmp174, tmp199, dst_x
 495              	.LBE168:
 496              	@ src/hebitmap.c:616:             uint8_t *dst_ptr = dst + dst_offset + (unsigned int)dst_x / 8;
 616:src/hebitmap.c ****             
 497              		.loc 1 616 22 view .LVU96
 498 006c 00EB060C 		add	ip, r0, r6	@ dst_ptr, dst, tmp168
 499              	.LBB169:
 500              	@ src/hebitmap.c:612:                 value = (src[src_offset + (unsigned int)src_x / 8] & src_bitm
 612:src/hebitmap.c ****             }
 501              		.loc 1 612 63 view .LVU97
 502 0070 EC08     		lsrs	r4, r5, #3	@ tmp170, tmp169,
 503              	.LBE169:
 504              	@ src/hebitmap.c:608:             if(dst_x < width)
 608:src/hebitmap.c ****             {
 505              		.loc 1 608 15 view .LVU98
 506 0072 149D     		ldr	r5, [sp, #80]	@ tmp231, width
 507              	.LVL28:
 508              	.LBB170:
 509              	@ src/hebitmap.c:611:                 uint8_t src_bitmask = 1 << (7 - (unsigned int)src_x % 8);
 611:src/hebitmap.c ****                 value = (src[src_offset + (unsigned int)src_x / 8] & src_bitmask);
 510              		.loc 1 611 47 view .LVU99
 511 0074 01F00701 		and	r1, r1, #7	@ tmp175, tmp174,
 512              	.LBE170:
 513              	@ src/hebitmap.c:615:             uint8_t dst_bitmask = 1 << (7 - (unsigned int)dst_x % 8);
 615:src/hebitmap.c ****             uint8_t *dst_ptr = dst + dst_offset + (unsigned int)dst_x / 8;
 514              		.loc 1 615 37 view .LVU100
 515 0078 07FA02F2 		lsl	r2, r7, r2	@ _59, tmp198, tmp165
 516              	@ src/hebitmap.c:608:             if(dst_x < width)
 608:src/hebitmap.c ****             {
 517              		.loc 1 608 15 view .LVU101
 518 007c 9D42     		cmp	r5, r3	@ tmp231, dst_x
 519              	.LBB171:
 520              	@ src/hebitmap.c:612:                 value = (src[src_offset + (unsigned int)src_x / 8] & src_bitm
 612:src/hebitmap.c ****             }
 521              		.loc 1 612 63 view .LVU102
 522 007e 0194     		str	r4, [sp, #4]	@ tmp170, %sfp
 523              	@ src/hebitmap.c:611:                 uint8_t src_bitmask = 1 << (7 - (unsigned int)src_x % 8);
 611:src/hebitmap.c ****                 value = (src[src_offset + (unsigned int)src_x / 8] & src_bitmask);
 524              		.loc 1 611 41 view .LVU103
 525 0080 07FA01F1 		lsl	r1, r7, r1	@ tmp176, tmp198, tmp175
 526              	.LBE171:
 527              	@ src/hebitmap.c:615:             uint8_t dst_bitmask = 1 << (7 - (unsigned int)dst_x % 8);
 615:src/hebitmap.c ****             uint8_t *dst_ptr = dst + dst_offset + (unsigned int)dst_x / 8;
 528              		.loc 1 615 21 view .LVU104
 529 0084 5FFA82FE 		uxtb	lr, r2	@ dst_bitmask, _59
 530              	.LVL29:
 616:src/hebitmap.c ****             
 531              		.loc 1 616 13 is_stmt 1 view .LVU105
 618:src/hebitmap.c ****             {
 532              		.loc 1 618 13 view .LVU106
 533              	@ src/hebitmap.c:608:             if(dst_x < width)
 608:src/hebitmap.c ****             {
 534              		.loc 1 608 15 is_stmt 0 view .LVU107
 535 0088 DADC     		bgt	.L28		@,
 536              	.L17:
ARM GAS  /var/folders/fr/v3bs66k977527trx432fyrqc0000gn/T//ccTJugNk.s 			page 26


 624:src/hebitmap.c ****             }
 537              		.loc 1 624 17 is_stmt 1 view .LVU108
 538              	@ src/hebitmap.c:624:                 *dst_ptr &= ~dst_bitmask;
 624:src/hebitmap.c ****             }
 539              		.loc 1 624 26 is_stmt 0 view .LVU109
 540 008a 9CF80010 		ldrb	r1, [ip]	@ zero_extendqisi2	@ *dst_ptr_66, *dst_ptr_66
 541              	.LBE177:
 542              	@ src/hebitmap.c:605:         for(int dst_x = 0; dst_x < aligned_width; dst_x++)
 605:src/hebitmap.c ****         {
 543              		.loc 1 605 56 view .LVU110
 544 008e 0133     		adds	r3, r3, #1	@ dst_x, dst_x,
 545              	.LVL30:
 546              	.LBB178:
 547              	@ src/hebitmap.c:624:                 *dst_ptr &= ~dst_bitmask;
 624:src/hebitmap.c ****             }
 548              		.loc 1 624 26 view .LVU111
 549 0090 21EA0202 		bic	r2, r1, r2	@ tmp193, *dst_ptr_66, _59
 550              	.LBE178:
 551              	@ src/hebitmap.c:605:         for(int dst_x = 0; dst_x < aligned_width; dst_x++)
 605:src/hebitmap.c ****         {
 552              		.loc 1 605 9 view .LVU112
 553 0094 9A45     		cmp	r10, r3	@ aligned_width, dst_x
 554              	.LBB179:
 555              	@ src/hebitmap.c:624:                 *dst_ptr &= ~dst_bitmask;
 624:src/hebitmap.c ****             }
 556              		.loc 1 624 26 view .LVU113
 557 0096 8CF80020 		strb	r2, [ip]	@ tmp193, *dst_ptr_66
 558              	.LBE179:
 605:src/hebitmap.c ****         {
 559              		.loc 1 605 51 is_stmt 1 view .LVU114
 560              	.LVL31:
 605:src/hebitmap.c ****         {
 561              		.loc 1 605 28 view .LVU115
 562              	@ src/hebitmap.c:605:         for(int dst_x = 0; dst_x < aligned_width; dst_x++)
 605:src/hebitmap.c ****         {
 563              		.loc 1 605 9 is_stmt 0 view .LVU116
 564 009a DED1     		bne	.L19		@,
 565              	.LVL32:
 566              	.L20:
 605:src/hebitmap.c ****         {
 567              		.loc 1 605 9 view .LVU117
 568              	.LBE180:
 628:src/hebitmap.c ****         dst_offset += dst_rowbytes;
 569              		.loc 1 628 9 is_stmt 1 view .LVU118
 570              	@ src/hebitmap.c:628:         src_offset += src_rowbytes;
 628:src/hebitmap.c ****         dst_offset += dst_rowbytes;
 571              		.loc 1 628 20 is_stmt 0 view .LVU119
 572 009c 039A     		ldr	r2, [sp, #12]	@ src_offset, %sfp
 573 009e 0699     		ldr	r1, [sp, #24]	@ src_rowbytes, %sfp
 574              	@ src/hebitmap.c:603:     for(int dst_y = 0; dst_y < height; dst_y++)
 603:src/hebitmap.c ****     {
 575              		.loc 1 603 45 view .LVU120
 576 00a0 049B     		ldr	r3, [sp, #16]	@ dst_y, %sfp
 577              	@ src/hebitmap.c:628:         src_offset += src_rowbytes;
 628:src/hebitmap.c ****         dst_offset += dst_rowbytes;
 578              		.loc 1 628 20 view .LVU121
 579 00a2 0A44     		add	r2, r2, r1	@ src_offset, src_rowbytes
ARM GAS  /var/folders/fr/v3bs66k977527trx432fyrqc0000gn/T//ccTJugNk.s 			page 27


 580              	@ src/hebitmap.c:603:     for(int dst_y = 0; dst_y < height; dst_y++)
 603:src/hebitmap.c ****     {
 581              		.loc 1 603 45 view .LVU122
 582 00a4 0133     		adds	r3, r3, #1	@ dst_y, dst_y,
 583              	@ src/hebitmap.c:628:         src_offset += src_rowbytes;
 628:src/hebitmap.c ****         dst_offset += dst_rowbytes;
 584              		.loc 1 628 20 view .LVU123
 585 00a6 0392     		str	r2, [sp, #12]	@ src_offset, %sfp
 586              	.LVL33:
 629:src/hebitmap.c ****     }
 587              		.loc 1 629 9 is_stmt 1 view .LVU124
 588              	@ src/hebitmap.c:629:         dst_offset += dst_rowbytes;
 629:src/hebitmap.c ****     }
 589              		.loc 1 629 20 is_stmt 0 view .LVU125
 590 00a8 059A     		ldr	r2, [sp, #20]	@ dst_rowbytes, %sfp
 591              	.LVL34:
 592              	@ src/hebitmap.c:603:     for(int dst_y = 0; dst_y < height; dst_y++)
 603:src/hebitmap.c ****     {
 593              		.loc 1 603 45 view .LVU126
 594 00aa 0493     		str	r3, [sp, #16]	@ dst_y, %sfp
 595              	.LVL35:
 596              	@ src/hebitmap.c:629:         dst_offset += dst_rowbytes;
 629:src/hebitmap.c ****     }
 597              		.loc 1 629 20 view .LVU127
 598 00ac 9044     		add	r8, r8, r2	@ dst_offset, dst_rowbytes
 599              	.LVL36:
 603:src/hebitmap.c ****     {
 600              		.loc 1 603 40 is_stmt 1 view .LVU128
 603:src/hebitmap.c ****     {
 601              		.loc 1 603 24 view .LVU129
 602              	@ src/hebitmap.c:603:     for(int dst_y = 0; dst_y < height; dst_y++)
 603:src/hebitmap.c ****     {
 603              		.loc 1 603 5 is_stmt 0 view .LVU130
 604 00ae 159A     		ldr	r2, [sp, #84]	@ tmp244, height
 605 00b0 9342     		cmp	r3, r2	@ dst_y, tmp244
 606 00b2 BCD1     		bne	.L14		@,
 607              	.LVL37:
 608              	.L13:
 603:src/hebitmap.c ****     {
 609              		.loc 1 603 5 view .LVU131
 610              	.LBE181:
 611              	@ src/hebitmap.c:631: }
 631:src/hebitmap.c **** 
 612              		.loc 1 631 1 view .LVU132
 613 00b4 09B0     		add	sp, sp, #36	@,,
 614              	.LCFI4:
 615              		.cfi_def_cfa_offset 36
 616              		@ sp needed	@
 617 00b6 BDE8F08F 		pop	{r4, r5, r6, r7, r8, r9, r10, fp, pc}	@
 631:src/hebitmap.c **** 
 618              		.loc 1 631 1 view .LVU133
 619              		.cfi_endproc
 620              	.LFE60:
 621              		.size	buffer_align_8_32.constprop.0, .-buffer_align_8_32.constprop.0
 622 00ba 00BF     		.section	.text.HEBitmapDrawOpaque,"ax",%progbits
 623              		.align	1
 624              		.p2align 4,,15
ARM GAS  /var/folders/fr/v3bs66k977527trx432fyrqc0000gn/T//ccTJugNk.s 			page 28


 625              		.global	HEBitmapDrawOpaque
 626              		.syntax unified
 627              		.thumb
 628              		.thumb_func
 629              		.fpu fpv5-sp-d16
 630              		.type	HEBitmapDrawOpaque, %function
 631              	HEBitmapDrawOpaque:
 632              	.LVL38:
 633              	.LFB15:
 634              		.file 2 "src/hebitmap_draw.h"
   1:src/hebitmap_draw.h **** //
   2:src/hebitmap_draw.h **** //  hebitmap_draw.h
   3:src/hebitmap_draw.h **** //  HEBitmap
   4:src/hebitmap_draw.h **** //
   5:src/hebitmap_draw.h **** //  Created by Matteo D'Ignazio on 12/02/24.
   6:src/hebitmap_draw.h **** //
   7:src/hebitmap_draw.h **** 
   8:src/hebitmap_draw.h **** #include "pd_api.h"
   9:src/hebitmap_draw.h **** #include "hebitmap.h"
  10:src/hebitmap_draw.h **** #include "hebitmap_prv.h"
  11:src/hebitmap_draw.h **** 
  12:src/hebitmap_draw.h **** #ifdef HEBITMAP_MASK
  13:src/hebitmap_draw.h **** void HEBitmapDrawMask(PlaydateAPI *playdate, HEBitmap *bitmap, int x, int y)
  14:src/hebitmap_draw.h **** #else
  15:src/hebitmap_draw.h **** void HEBitmapDrawOpaque(PlaydateAPI *playdate, HEBitmap *bitmap, int x, int y)
  16:src/hebitmap_draw.h **** #endif
  17:src/hebitmap_draw.h **** {
 635              		.loc 2 17 1 is_stmt 1 view -0
 636              		.cfi_startproc
 637              		@ args = 0, pretend = 0, frame = 56
 638              		@ frame_needed = 0, uses_anonymous_args = 0
  18:src/hebitmap_draw.h ****     _HEBitmap *prv = bitmap->prv;
 639              		.loc 2 18 5 view .LVU135
 640              	@ src/hebitmap_draw.h:17: {
  17:src/hebitmap_draw.h ****     _HEBitmap *prv = bitmap->prv;
 641              		.loc 2 17 1 is_stmt 0 view .LVU136
 642 0000 2DE9F04F 		push	{r4, r5, r6, r7, r8, r9, r10, fp, lr}	@
 643              	.LCFI5:
 644              		.cfi_def_cfa_offset 36
 645              		.cfi_offset 4, -36
 646              		.cfi_offset 5, -32
 647              		.cfi_offset 6, -28
 648              		.cfi_offset 7, -24
 649              		.cfi_offset 8, -20
 650              		.cfi_offset 9, -16
 651              		.cfi_offset 10, -12
 652              		.cfi_offset 11, -8
 653              		.cfi_offset 14, -4
 654              	@ src/hebitmap_draw.h:18:     _HEBitmap *prv = bitmap->prv;
 655              		.loc 2 18 16 view .LVU137
 656 0004 0C68     		ldr	r4, [r1]	@ prv, bitmap_112(D)->prv
 657              	.LVL39:
  19:src/hebitmap_draw.h ****     
  20:src/hebitmap_draw.h ****     x += prv->bx;
 658              		.loc 2 20 5 is_stmt 1 view .LVU138
 659              	@ src/hebitmap_draw.h:17: {
  17:src/hebitmap_draw.h ****     _HEBitmap *prv = bitmap->prv;
ARM GAS  /var/folders/fr/v3bs66k977527trx432fyrqc0000gn/T//ccTJugNk.s 			page 29


 660              		.loc 2 17 1 is_stmt 0 view .LVU139
 661 0006 0E46     		mov	r6, r1	@ bitmap, tmp412
 662 0008 99B0     		sub	sp, sp, #100	@,,
 663              	.LCFI6:
 664              		.cfi_def_cfa_offset 136
 665              	@ src/hebitmap_draw.h:23:     if((x + prv->bw) <= clipRect.x || x >= (clipRect.x + clipRect.width) 
  21:src/hebitmap_draw.h ****     y += prv->by;
  22:src/hebitmap_draw.h ****     
  23:src/hebitmap_draw.h ****     if((x + prv->bw) <= clipRect.x || x >= (clipRect.x + clipRect.width) || (y + prv->bh) <= clipRe
 666              		.loc 2 23 33 view .LVU140
 667 000a 9E4F     		ldr	r7, .L68	@ tmp269,
 668              	@ src/hebitmap_draw.h:20:     x += prv->bx;
  20:src/hebitmap_draw.h ****     y += prv->by;
 669              		.loc 2 20 7 view .LVU141
 670 000c E168     		ldr	r1, [r4, #12]	@ prv_113->bx, prv_113->bx
 671              	.LVL40:
 672              	@ src/hebitmap_draw.h:17: {
  17:src/hebitmap_draw.h ****     _HEBitmap *prv = bitmap->prv;
 673              		.loc 2 17 1 view .LVU142
 674 000e 8246     		mov	r10, r0	@ playdate, tmp411
 675 0010 0D90     		str	r0, [sp, #52]	@ playdate, %sfp
 676              	@ src/hebitmap_draw.h:20:     x += prv->bx;
  20:src/hebitmap_draw.h ****     y += prv->by;
 677              		.loc 2 20 7 view .LVU143
 678 0012 5518     		adds	r5, r2, r1	@ x, tmp413, prv_113->bx
 679              	.LVL41:
  21:src/hebitmap_draw.h ****     y += prv->by;
 680              		.loc 2 21 5 is_stmt 1 view .LVU144
 681              		.loc 2 23 5 view .LVU145
 682              	@ src/hebitmap_draw.h:23:     if((x + prv->bw) <= clipRect.x || x >= (clipRect.x + clipRect.width) 
 683              		.loc 2 23 11 is_stmt 0 view .LVU146
 684 0014 6169     		ldr	r1, [r4, #20]	@ prv_113->bw, prv_113->bw
 685              	@ src/hebitmap_draw.h:23:     if((x + prv->bw) <= clipRect.x || x >= (clipRect.x + clipRect.width) 
 686              		.loc 2 23 33 view .LVU147
 687 0016 3868     		ldr	r0, [r7]	@ _5, clipRect.x
 688              	.LVL42:
 689              	@ src/hebitmap_draw.h:23:     if((x + prv->bw) <= clipRect.x || x >= (clipRect.x + clipRect.width) 
 690              		.loc 2 23 11 view .LVU148
 691 0018 2944     		add	r1, r1, r5	@ tmp270, x
 692              	@ src/hebitmap_draw.h:23:     if((x + prv->bw) <= clipRect.x || x >= (clipRect.x + clipRect.width) 
 693              		.loc 2 23 7 view .LVU149
 694 001a 8142     		cmp	r1, r0	@ tmp270, _5
 695 001c 0FDD     		ble	.L29		@,
 696              	@ src/hebitmap_draw.h:23:     if((x + prv->bw) <= clipRect.x || x >= (clipRect.x + clipRect.width) 
 697              		.loc 2 23 56 discriminator 1 view .LVU150
 698 001e BA68     		ldr	r2, [r7, #8]	@ clipRect.width, clipRect.width
 699 0020 1044     		add	r0, r0, r2	@ tmp273, clipRect.width
 700              	@ src/hebitmap_draw.h:23:     if((x + prv->bw) <= clipRect.x || x >= (clipRect.x + clipRect.width) 
 701              		.loc 2 23 36 discriminator 1 view .LVU151
 702 0022 A842     		cmp	r0, r5	@ tmp273, x
 703 0024 0BDD     		ble	.L29		@,
 704              	@ src/hebitmap_draw.h:21:     y += prv->by;
  21:src/hebitmap_draw.h ****     y += prv->by;
 705              		.loc 2 21 7 discriminator 2 view .LVU152
 706 0026 2169     		ldr	r1, [r4, #16]	@ prv_113->by, prv_113->by
 707              	@ src/hebitmap_draw.h:23:     if((x + prv->bw) <= clipRect.x || x >= (clipRect.x + clipRect.width) 
 708              		.loc 2 23 80 discriminator 2 view .LVU153
ARM GAS  /var/folders/fr/v3bs66k977527trx432fyrqc0000gn/T//ccTJugNk.s 			page 30


 709 0028 A269     		ldr	r2, [r4, #24]	@ prv_113->bh, prv_113->bh
 710              	@ src/hebitmap_draw.h:21:     y += prv->by;
  21:src/hebitmap_draw.h ****     y += prv->by;
 711              		.loc 2 21 7 discriminator 2 view .LVU154
 712 002a 03EB010C 		add	ip, r3, r1	@ y, y, prv_113->by
 713              	@ src/hebitmap_draw.h:23:     if((x + prv->bw) <= clipRect.x || x >= (clipRect.x + clipRect.width) 
 714              		.loc 2 23 102 discriminator 2 view .LVU155
 715 002e 7B68     		ldr	r3, [r7, #4]	@ _10, clipRect.y
 716              	.LVL43:
 717              	@ src/hebitmap_draw.h:23:     if((x + prv->bw) <= clipRect.x || x >= (clipRect.x + clipRect.width) 
 718              		.loc 2 23 80 discriminator 2 view .LVU156
 719 0030 6244     		add	r2, r2, ip	@ tmp277, y
 720              	@ src/hebitmap_draw.h:23:     if((x + prv->bw) <= clipRect.x || x >= (clipRect.x + clipRect.width) 
 721              		.loc 2 23 74 discriminator 2 view .LVU157
 722 0032 9A42     		cmp	r2, r3	@ tmp277, _10
 723 0034 03DD     		ble	.L29		@,
 724              	@ src/hebitmap_draw.h:23:     if((x + prv->bw) <= clipRect.x || x >= (clipRect.x + clipRect.width) 
 725              		.loc 2 23 125 discriminator 3 view .LVU158
 726 0036 FA68     		ldr	r2, [r7, #12]	@ clipRect.height, clipRect.height
 727 0038 1344     		add	r3, r3, r2	@ tmp280, clipRect.height
 728              	@ src/hebitmap_draw.h:23:     if((x + prv->bw) <= clipRect.x || x >= (clipRect.x + clipRect.width) 
 729              		.loc 2 23 105 discriminator 3 view .LVU159
 730 003a 6345     		cmp	r3, ip	@ tmp280, y
 731 003c 02DC     		bgt	.L65		@,
 732              	.L29:
 733              	@ src/hebitmap_draw.h:191: }
  24:src/hebitmap_draw.h ****     {
  25:src/hebitmap_draw.h ****         //
  26:src/hebitmap_draw.h ****         // Bitmap is not visible
  27:src/hebitmap_draw.h ****         //
  28:src/hebitmap_draw.h ****         return;
  29:src/hebitmap_draw.h ****     }
  30:src/hebitmap_draw.h ****     
  31:src/hebitmap_draw.h ****     unsigned int x1, y1, x2, y2, offset_left, offset_top;
  32:src/hebitmap_draw.h ****     clip_bounds(bitmap, x, y, &x1, &y1, &x2, &y2, &offset_left, &offset_top, clipRect);
  33:src/hebitmap_draw.h ****     
  34:src/hebitmap_draw.h ****     uint8_t *frame_start = playdate->graphics->getFrame() + y1 * LCD_ROWSIZE + x1 / 32 * 4;
  35:src/hebitmap_draw.h ****     
  36:src/hebitmap_draw.h ****     if((int)(x1 / 32 * 32) <= x)
  37:src/hebitmap_draw.h ****     {
  38:src/hebitmap_draw.h ****         //     start <= x <= x1
  39:src/hebitmap_draw.h ****         //
  40:src/hebitmap_draw.h ****         //   start           x      x1
  41:src/hebitmap_draw.h ****         //     ----------------------------------
  42:src/hebitmap_draw.h ****         //     |    shift    *******image*******|
  43:src/hebitmap_draw.h ****         //     0--------------------------------32
  44:src/hebitmap_draw.h ****         //     |                    ++++clip++++|
  45:src/hebitmap_draw.h ****         //     0--------------------------------32
  46:src/hebitmap_draw.h ****         
  47:src/hebitmap_draw.h ****         int shift = (unsigned int)x % 32;
  48:src/hebitmap_draw.h ****         uint32_t og_shift_mask = ~(0xFFFFFFFF >> shift);
  49:src/hebitmap_draw.h ****         
  50:src/hebitmap_draw.h ****         int data_offset = offset_top * prv->rowbytes;
  51:src/hebitmap_draw.h ****         
  52:src/hebitmap_draw.h ****         uint8_t *data_start = prv->data + data_offset;
  53:src/hebitmap_draw.h **** #ifdef HEBITMAP_MASK
  54:src/hebitmap_draw.h ****         uint8_t *mask_start = prv->mask + data_offset;
ARM GAS  /var/folders/fr/v3bs66k977527trx432fyrqc0000gn/T//ccTJugNk.s 			page 31


  55:src/hebitmap_draw.h **** #endif
  56:src/hebitmap_draw.h ****         for(int row = y1; row < y2; row++)
  57:src/hebitmap_draw.h ****         {
  58:src/hebitmap_draw.h ****             uint32_t *frame_ptr = (uint32_t*)frame_start;
  59:src/hebitmap_draw.h ****             uint32_t *data_ptr = (uint32_t*)data_start;
  60:src/hebitmap_draw.h ****             uint32_t data_left = bswap32(*frame_ptr);
  61:src/hebitmap_draw.h **** #ifdef HEBITMAP_MASK
  62:src/hebitmap_draw.h ****             uint32_t *mask_ptr = (uint32_t*)mask_start;
  63:src/hebitmap_draw.h ****             uint32_t mask_left = 0x00000000;
  64:src/hebitmap_draw.h **** #endif
  65:src/hebitmap_draw.h ****             uint32_t shift_mask = ~(0xFFFFFFFF >> (x1 % 32));
  66:src/hebitmap_draw.h ****             int len = x2 - x1 / 32 * 32;
  67:src/hebitmap_draw.h ****             
  68:src/hebitmap_draw.h ****             while(len > 0)
  69:src/hebitmap_draw.h ****             {
  70:src/hebitmap_draw.h ****                 uint32_t data_right = bswap32(*data_ptr) >> shift;
  71:src/hebitmap_draw.h ****                 uint32_t data = (data_left & shift_mask) | (data_right & ~shift_mask);
  72:src/hebitmap_draw.h **** #ifdef HEBITMAP_MASK
  73:src/hebitmap_draw.h ****                 uint32_t mask_right = bswap32(*mask_ptr) >> shift;
  74:src/hebitmap_draw.h ****                 uint32_t mask = (mask_left & shift_mask) | (mask_right & ~shift_mask);
  75:src/hebitmap_draw.h ****                 data = (bswap32(*frame_ptr) & ~mask) | (data & mask);
  76:src/hebitmap_draw.h **** #endif
  77:src/hebitmap_draw.h ****                 if(len < 32)
  78:src/hebitmap_draw.h ****                 {
  79:src/hebitmap_draw.h ****                     uint32_t clip_mask = 0xFFFFFFFF << (32 - len);
  80:src/hebitmap_draw.h ****                     data = (data & clip_mask) | (bswap32(*frame_ptr) & ~clip_mask);
  81:src/hebitmap_draw.h ****                 }
  82:src/hebitmap_draw.h ****                 
  83:src/hebitmap_draw.h ****                 *frame_ptr++ = bswap32(data);
  84:src/hebitmap_draw.h ****                 
  85:src/hebitmap_draw.h ****                 // Fetch data for next iteration
  86:src/hebitmap_draw.h ****                 data_left = bswap32(*data_ptr++) << (32 - shift);
  87:src/hebitmap_draw.h **** #ifdef HEBITMAP_MASK
  88:src/hebitmap_draw.h ****                 // Fetch mask for next iteration
  89:src/hebitmap_draw.h ****                 mask_left = bswap32(*mask_ptr++) << (32 - shift);
  90:src/hebitmap_draw.h **** #endif
  91:src/hebitmap_draw.h ****                 shift_mask = og_shift_mask;
  92:src/hebitmap_draw.h ****                 len -= 32;
  93:src/hebitmap_draw.h ****             }
  94:src/hebitmap_draw.h ****             
  95:src/hebitmap_draw.h ****             frame_start += LCD_ROWSIZE;
  96:src/hebitmap_draw.h ****             data_start += prv->rowbytes;
  97:src/hebitmap_draw.h **** #ifdef HEBITMAP_MASK
  98:src/hebitmap_draw.h ****             mask_start += prv->rowbytes;
  99:src/hebitmap_draw.h **** #endif
 100:src/hebitmap_draw.h ****         }
 101:src/hebitmap_draw.h ****     }
 102:src/hebitmap_draw.h ****     else
 103:src/hebitmap_draw.h ****     {
 104:src/hebitmap_draw.h ****         //     x < start <= x1
 105:src/hebitmap_draw.h ****         //
 106:src/hebitmap_draw.h ****         //                 x                  start   x1
 107:src/hebitmap_draw.h ****         //     ---------------------------------------------------
 108:src/hebitmap_draw.h ****         //     |           ********image********|*****************
 109:src/hebitmap_draw.h ****         //     0--------------------------------32----------------
 110:src/hebitmap_draw.h ****         //     |                                |     ++++clip++++
 111:src/hebitmap_draw.h ****         //     0--------------------------------32----------------
ARM GAS  /var/folders/fr/v3bs66k977527trx432fyrqc0000gn/T//ccTJugNk.s 			page 32


 112:src/hebitmap_draw.h ****         //                 ------offset_32------
 113:src/hebitmap_draw.h ****         
 114:src/hebitmap_draw.h ****         int shift = (unsigned int)abs(x) % 32;
 115:src/hebitmap_draw.h ****         
 116:src/hebitmap_draw.h ****         //
 117:src/hebitmap_draw.h ****         //     |            ********image********|
 118:src/hebitmap_draw.h ****         //     0-----------12-------------------32
 119:src/hebitmap_draw.h ****         //     ---shift----
 120:src/hebitmap_draw.h ****         //
 121:src/hebitmap_draw.h ****         //     |           ********image********|
 122:src/hebitmap_draw.h ****         //   -32 ------- -20 -------------------0
 123:src/hebitmap_draw.h ****         //                 --------shift--------
 124:src/hebitmap_draw.h ****         
 125:src/hebitmap_draw.h ****         if(x >= 0 && shift > 0)
 126:src/hebitmap_draw.h ****         {
 127:src/hebitmap_draw.h ****             shift = 32 - shift;
 128:src/hebitmap_draw.h ****         }
 129:src/hebitmap_draw.h ****         uint32_t shift_mask = 0xFFFFFFFF << shift;
 130:src/hebitmap_draw.h **** 
 131:src/hebitmap_draw.h ****         unsigned int offset_32 = x1 / 32 * 32 - x;
 132:src/hebitmap_draw.h ****         int data_offset = offset_top * prv->rowbytes + offset_32 / 32 * 4;
 133:src/hebitmap_draw.h ****         
 134:src/hebitmap_draw.h ****         uint8_t *data_start = prv->data + data_offset;
 135:src/hebitmap_draw.h **** #ifdef HEBITMAP_MASK
 136:src/hebitmap_draw.h ****         uint8_t *mask_start = prv->mask + data_offset;
 137:src/hebitmap_draw.h **** #endif
 138:src/hebitmap_draw.h ****         for(int row = y1; row < y2; row++)
 139:src/hebitmap_draw.h ****         {
 140:src/hebitmap_draw.h ****             uint32_t *frame_ptr = (uint32_t*)frame_start;
 141:src/hebitmap_draw.h ****             uint32_t *data_ptr = (uint32_t*)data_start;
 142:src/hebitmap_draw.h ****             uint32_t data_left = bswap32(*data_ptr) << shift;
 143:src/hebitmap_draw.h **** #ifdef HEBITMAP_MASK
 144:src/hebitmap_draw.h ****             uint32_t *mask_ptr = (uint32_t*)mask_start;
 145:src/hebitmap_draw.h ****             uint32_t mask_left = bswap32(*mask_ptr) << shift;
 146:src/hebitmap_draw.h **** #endif
 147:src/hebitmap_draw.h ****             uint32_t clip_left_mask = ~(0xFFFFFFFF >> (x1 % 32));
 148:src/hebitmap_draw.h ****             int len = x2 - x1 / 32 * 32;
 149:src/hebitmap_draw.h ****             
 150:src/hebitmap_draw.h ****             while(len > 0)
 151:src/hebitmap_draw.h ****             {
 152:src/hebitmap_draw.h ****                 uint32_t data_right = ((len + shift) > 32) ? (bswap32(*++data_ptr) >> (32 - shift))
 153:src/hebitmap_draw.h ****                 uint32_t data = (data_left & shift_mask) | (data_right & ~shift_mask);
 154:src/hebitmap_draw.h **** #ifdef HEBITMAP_MASK
 155:src/hebitmap_draw.h ****                 uint32_t mask_right = ((len + shift) > 32) ? (bswap32(*++mask_ptr) >> (32 - shift))
 156:src/hebitmap_draw.h ****                 uint32_t mask = (mask_left & shift_mask) | (mask_right & ~shift_mask);
 157:src/hebitmap_draw.h ****                 data = (bswap32(*frame_ptr) & ~mask) | (data & mask);
 158:src/hebitmap_draw.h **** #endif
 159:src/hebitmap_draw.h ****                 if(clip_left_mask != 0x00000000)
 160:src/hebitmap_draw.h ****                 {
 161:src/hebitmap_draw.h ****                     data = (bswap32(*frame_ptr) & clip_left_mask) | (data & ~clip_left_mask);
 162:src/hebitmap_draw.h ****                     clip_left_mask = 0x00000000;
 163:src/hebitmap_draw.h ****                 }
 164:src/hebitmap_draw.h ****                 
 165:src/hebitmap_draw.h ****                 if(len < 32)
 166:src/hebitmap_draw.h ****                 {
 167:src/hebitmap_draw.h ****                     uint32_t clip_right_mask = 0xFFFFFFFF << (32 - len);
 168:src/hebitmap_draw.h ****                     data = (data & clip_right_mask) | (bswap32(*frame_ptr) & ~clip_right_mask);
ARM GAS  /var/folders/fr/v3bs66k977527trx432fyrqc0000gn/T//ccTJugNk.s 			page 33


 169:src/hebitmap_draw.h ****                 }
 170:src/hebitmap_draw.h ****                 
 171:src/hebitmap_draw.h ****                 *frame_ptr++ = bswap32(data);
 172:src/hebitmap_draw.h ****                 
 173:src/hebitmap_draw.h ****                 // Fetch data for next iteration
 174:src/hebitmap_draw.h ****                 data_left = bswap32(*data_ptr) << shift;
 175:src/hebitmap_draw.h **** #ifdef HEBITMAP_MASK
 176:src/hebitmap_draw.h ****                 // Fetch mask for next iteration
 177:src/hebitmap_draw.h ****                 mask_left = bswap32(*mask_ptr) << shift;
 178:src/hebitmap_draw.h **** #endif
 179:src/hebitmap_draw.h ****                 len -= 32;
 180:src/hebitmap_draw.h ****             }
 181:src/hebitmap_draw.h **** 
 182:src/hebitmap_draw.h ****             frame_start += LCD_ROWSIZE;
 183:src/hebitmap_draw.h ****             data_start += prv->rowbytes;
 184:src/hebitmap_draw.h **** #ifdef HEBITMAP_MASK
 185:src/hebitmap_draw.h ****             mask_start += prv->rowbytes;
 186:src/hebitmap_draw.h **** #endif
 187:src/hebitmap_draw.h ****         }
 188:src/hebitmap_draw.h ****     }
 189:src/hebitmap_draw.h ****     
 190:src/hebitmap_draw.h ****     playdate->graphics->markUpdatedRows(y1, y2 - 1);
 191:src/hebitmap_draw.h **** }
 734              		.loc 2 191 1 view .LVU160
 735 003e 19B0     		add	sp, sp, #100	@,,
 736              	.LCFI7:
 737              		.cfi_remember_state
 738              		.cfi_def_cfa_offset 36
 739              		@ sp needed	@
 740 0040 BDE8F08F 		pop	{r4, r5, r6, r7, r8, r9, r10, fp, pc}	@
 741              	.LVL44:
 742              	.L65:
 743              	.LCFI8:
 744              		.cfi_restore_state
  31:src/hebitmap_draw.h ****     clip_bounds(bitmap, x, y, &x1, &y1, &x2, &y2, &offset_left, &offset_top, clipRect);
 745              		.loc 2 31 5 is_stmt 1 view .LVU161
  32:src/hebitmap_draw.h ****     
 746              		.loc 2 32 5 view .LVU162
 747 0044 97E80F00 		ldm	r7, {r0, r1, r2, r3}	@ tmp269,,,,
 748              	.LVL45:
  32:src/hebitmap_draw.h ****     
 749              		.loc 2 32 5 is_stmt 0 view .LVU163
 750 0048 0DF1140E 		add	lr, sp, #20	@ tmp284,,
 751 004c 0DF15C09 		add	r9, sp, #92	@ tmp286,,
 752 0050 0DF15808 		add	r8, sp, #88	@ tmp287,,
 753 0054 13AF     		add	r7, sp, #76	@ tmp290,,
 754 0056 8EE80F00 		stm	lr, {r0, r1, r2, r3}	@ tmp284,,,,
 755              	.LVL46:
  32:src/hebitmap_draw.h ****     
 756              		.loc 2 32 5 view .LVU164
 757 005a 0DF1500E 		add	lr, sp, #80	@ tmp289,,
 758 005e 15A9     		add	r1, sp, #84	@ tmp288,,
 759 0060 3046     		mov	r0, r6	@, bitmap
 760 0062 6246     		mov	r2, ip	@, y
 761 0064 12AB     		add	r3, sp, #72	@,,
 762 0066 0291     		str	r1, [sp, #8]	@ tmp288,
 763 0068 CDF81090 		str	r9, [sp, #16]	@ tmp286,
ARM GAS  /var/folders/fr/v3bs66k977527trx432fyrqc0000gn/T//ccTJugNk.s 			page 34


 764 006c 2946     		mov	r1, r5	@, x
 765 006e CDF80C80 		str	r8, [sp, #12]	@ tmp287,
 766 0072 CDE9007E 		strd	r7, lr, [sp]	@ tmp290, tmp289,
 767 0076 FFF7FEFF 		bl	clip_bounds		@
 768              	.LVL47:
  34:src/hebitmap_draw.h ****     
 769              		.loc 2 34 5 is_stmt 1 view .LVU165
 770              	@ src/hebitmap_draw.h:34:     uint8_t *frame_start = playdate->graphics->getFrame() + y1 * LCD_ROWS
  34:src/hebitmap_draw.h ****     
 771              		.loc 2 34 46 is_stmt 0 view .LVU166
 772 007a DAF80830 		ldr	r3, [r10, #8]	@ playdate_119(D)->graphics, playdate_119(D)->graphics
 773              	@ src/hebitmap_draw.h:34:     uint8_t *frame_start = playdate->graphics->getFrame() + y1 * LCD_ROWS
  34:src/hebitmap_draw.h ****     
 774              		.loc 2 34 28 view .LVU167
 775 007e D3F8A430 		ldr	r3, [r3, #164]	@ _13->getFrame, _13->getFrame
 776 0082 9847     		blx	r3		@ _13->getFrame
 777              	.LVL48:
 778              	@ src/hebitmap_draw.h:34:     uint8_t *frame_start = playdate->graphics->getFrame() + y1 * LCD_ROWS
  34:src/hebitmap_draw.h ****     
 779              		.loc 2 34 78 view .LVU168
 780 0084 139E     		ldr	r6, [sp, #76]	@ y1.0_16, y1
 781              	.LVL49:
  34:src/hebitmap_draw.h ****     
 782              		.loc 2 34 78 view .LVU169
 783 0086 1299     		ldr	r1, [sp, #72]	@ x1.1_18, x1
 784 0088 06EB4602 		add	r2, r6, r6, lsl #1	@ tmp295, y1.0_16, y1.0_16,
 785 008c 1196     		str	r6, [sp, #68]	@ y1.0_16, %sfp
 786              	@ src/hebitmap_draw.h:36:     if((int)(x1 / 32 * 32) <= x)
  36:src/hebitmap_draw.h ****     {
 787              		.loc 2 36 8 view .LVU170
 788 008e 21F01F03 		bic	r3, r1, #31	@ _47, x1.1_18,
 789              	@ src/hebitmap_draw.h:34:     uint8_t *frame_start = playdate->graphics->getFrame() + y1 * LCD_ROWS
  34:src/hebitmap_draw.h ****     
 790              		.loc 2 34 78 view .LVU171
 791 0092 06EB8202 		add	r2, r6, r2, lsl #2	@ tmp297, y1.0_16, tmp295,
 792              	@ src/hebitmap_draw.h:36:     if((int)(x1 / 32 * 32) <= x)
  36:src/hebitmap_draw.h ****     {
 793              		.loc 2 36 7 view .LVU172
 794 0096 AB42     		cmp	r3, r5	@ _47, x
 795              	@ src/hebitmap_draw.h:34:     uint8_t *frame_start = playdate->graphics->getFrame() + y1 * LCD_ROWS
  34:src/hebitmap_draw.h ****     
 796              		.loc 2 34 78 view .LVU173
 797 0098 02EB5112 		add	r2, r2, r1, lsr #5	@ tmp299, tmp297, x1.1_18,
 798              	@ src/hebitmap_draw.h:34:     uint8_t *frame_start = playdate->graphics->getFrame() + y1 * LCD_ROWS
  34:src/hebitmap_draw.h ****     
 799              		.loc 2 34 14 view .LVU174
 800 009c 00EB8200 		add	r0, r0, r2, lsl #2	@ frame_start, tmp415, tmp299,
 801              	.LVL50:
  36:src/hebitmap_draw.h ****     {
 802              		.loc 2 36 5 is_stmt 1 view .LVU175
 803              	@ src/hebitmap_draw.h:36:     if((int)(x1 / 32 * 32) <= x)
  36:src/hebitmap_draw.h ****     {
 804              		.loc 2 36 7 is_stmt 0 view .LVU176
 805 00a0 71DC     		bgt	.L33		@,
 806              	.LBB182:
  47:src/hebitmap_draw.h ****         uint32_t og_shift_mask = ~(0xFFFFFFFF >> shift);
 807              		.loc 2 47 9 is_stmt 1 view .LVU177
ARM GAS  /var/folders/fr/v3bs66k977527trx432fyrqc0000gn/T//ccTJugNk.s 			page 35


 808              	@ src/hebitmap_draw.h:50:         int data_offset = offset_top * prv->rowbytes;
  50:src/hebitmap_draw.h ****         
 809              		.loc 2 50 43 is_stmt 0 view .LVU178
 810 00a2 A768     		ldr	r7, [r4, #8]	@ _26, prv_113->rowbytes
 811              	@ src/hebitmap_draw.h:47:         int shift = (unsigned int)x % 32;
  47:src/hebitmap_draw.h ****         uint32_t og_shift_mask = ~(0xFFFFFFFF >> shift);
 812              		.loc 2 47 13 view .LVU179
 813 00a4 05F01F0A 		and	r10, r5, #31	@ shift, x,
 814              	.LVL51:
  48:src/hebitmap_draw.h ****         
 815              		.loc 2 48 9 is_stmt 1 view .LVU180
 816              	@ src/hebitmap_draw.h:48:         uint32_t og_shift_mask = ~(0xFFFFFFFF >> shift);
  48:src/hebitmap_draw.h ****         
 817              		.loc 2 48 47 is_stmt 0 view .LVU181
 818 00a8 4FF0FF38 		mov	r8, #-1	@ tmp303,
 819              	.LBB183:
 820              	@ src/hebitmap_draw.h:56:         for(int row = y1; row < y2; row++)
  56:src/hebitmap_draw.h ****         {
 821              		.loc 2 56 31 view .LVU182
 822 00ac 159D     		ldr	r5, [sp, #84]	@ prephitmp_42, y2
 823              	.LVL52:
  56:src/hebitmap_draw.h ****         {
 824              		.loc 2 56 31 view .LVU183
 825              	.LBE183:
 826              	@ src/hebitmap_draw.h:52:         uint8_t *data_start = prv->data + data_offset;
  52:src/hebitmap_draw.h **** #ifdef HEBITMAP_MASK
 827              		.loc 2 52 18 view .LVU184
 828 00ae 2468     		ldr	r4, [r4]	@ prv_113->data, prv_113->data
 829              	.LVL53:
 830              	@ src/hebitmap_draw.h:50:         int data_offset = offset_top * prv->rowbytes;
  50:src/hebitmap_draw.h ****         
 831              		.loc 2 50 38 view .LVU185
 832 00b0 179A     		ldr	r2, [sp, #92]	@ offset_top, offset_top
 833              	@ src/hebitmap_draw.h:48:         uint32_t og_shift_mask = ~(0xFFFFFFFF >> shift);
  48:src/hebitmap_draw.h ****         
 834              		.loc 2 48 47 view .LVU186
 835 00b2 28FA0AFC 		lsr	ip, r8, r10	@ tmp302, tmp303, shift
 836              	.LBB220:
 837              	@ src/hebitmap_draw.h:56:         for(int row = y1; row < y2; row++)
  56:src/hebitmap_draw.h ****         {
 838              		.loc 2 56 9 view .LVU187
 839 00b6 AE42     		cmp	r6, r5	@ y1.0_16, prephitmp_42
 840              	.LBE220:
 841              	@ src/hebitmap_draw.h:50:         int data_offset = offset_top * prv->rowbytes;
  50:src/hebitmap_draw.h ****         
 842              		.loc 2 50 43 view .LVU188
 843 00b8 0E97     		str	r7, [sp, #56]	@ _26, %sfp
 844              	@ src/hebitmap_draw.h:52:         uint8_t *data_start = prv->data + data_offset;
  52:src/hebitmap_draw.h **** #ifdef HEBITMAP_MASK
 845              		.loc 2 52 18 view .LVU189
 846 00ba 02FB0742 		mla	r2, r2, r7, r4	@ data_start, offset_top, _26, prv_113->data
 847              	@ src/hebitmap_draw.h:48:         uint32_t og_shift_mask = ~(0xFFFFFFFF >> shift);
  48:src/hebitmap_draw.h ****         
 848              		.loc 2 48 18 view .LVU190
 849 00be 6FEA0C0C 		mvn	ip, ip	@ og_shift_mask, tmp302
 850              	.LVL54:
  50:src/hebitmap_draw.h ****         
ARM GAS  /var/folders/fr/v3bs66k977527trx432fyrqc0000gn/T//ccTJugNk.s 			page 36


 851              		.loc 2 50 9 is_stmt 1 view .LVU191
  52:src/hebitmap_draw.h **** #ifdef HEBITMAP_MASK
 852              		.loc 2 52 9 view .LVU192
 853              	.LBB221:
 854              	@ src/hebitmap_draw.h:56:         for(int row = y1; row < y2; row++)
  56:src/hebitmap_draw.h ****         {
 855              		.loc 2 56 31 is_stmt 0 view .LVU193
 856 00c2 0C95     		str	r5, [sp, #48]	@ prephitmp_42, %sfp
 857              	.LBE221:
 858              	@ src/hebitmap_draw.h:52:         uint8_t *data_start = prv->data + data_offset;
  52:src/hebitmap_draw.h **** #ifdef HEBITMAP_MASK
 859              		.loc 2 52 18 view .LVU194
 860 00c4 0B92     		str	r2, [sp, #44]	@ data_start, %sfp
 861              	.LVL55:
  56:src/hebitmap_draw.h ****         {
 862              		.loc 2 56 9 is_stmt 1 view .LVU195
 863              	.LBB222:
  56:src/hebitmap_draw.h ****         {
 864              		.loc 2 56 13 view .LVU196
  56:src/hebitmap_draw.h ****         {
 865              		.loc 2 56 27 view .LVU197
 866              	@ src/hebitmap_draw.h:56:         for(int row = y1; row < y2; row++)
  56:src/hebitmap_draw.h ****         {
 867              		.loc 2 56 9 is_stmt 0 view .LVU198
 868 00c6 53D2     		bcs	.L34		@,
 869              	.LBB184:
 870              	@ src/hebitmap_draw.h:66:             int len = x2 - x1 / 32 * 32;
  66:src/hebitmap_draw.h ****             
 871              		.loc 2 66 26 view .LVU199
 872 00c8 149F     		ldr	r7, [sp, #80]	@ x2, x2
 873              	.LVL56:
 874              	@ src/hebitmap_draw.h:65:             uint32_t shift_mask = ~(0xFFFFFFFF >> (x1 % 32));
  65:src/hebitmap_draw.h ****             int len = x2 - x1 / 32 * 32;
 875              		.loc 2 65 55 view .LVU200
 876 00ca 01F01F01 		and	r1, r1, #31	@ tmp307, x1.1_18,
 877              	.LBE184:
 878              	@ src/hebitmap_draw.h:56:         for(int row = y1; row < y2; row++)
  56:src/hebitmap_draw.h ****         {
 879              		.loc 2 56 17 view .LVU201
 880 00ce B146     		mov	r9, r6	@ row, y1.0_16
 881              	.LVL57:
  56:src/hebitmap_draw.h ****         {
 882              		.loc 2 56 17 view .LVU202
 883 00d0 5546     		mov	r5, r10	@ shift, shift
 884              	.LBB218:
 885              	@ src/hebitmap_draw.h:66:             int len = x2 - x1 / 32 * 32;
  66:src/hebitmap_draw.h ****             
 886              		.loc 2 66 26 view .LVU203
 887 00d2 FA1A     		subs	r2, r7, r3	@ _35, x2, _47
 888              	.LVL58:
 889              	@ src/hebitmap_draw.h:65:             uint32_t shift_mask = ~(0xFFFFFFFF >> (x1 % 32));
  65:src/hebitmap_draw.h ****             int len = x2 - x1 / 32 * 32;
 890              		.loc 2 65 48 view .LVU204
 891 00d4 28FA01F1 		lsr	r1, r8, r1	@ tmp308, tmp303, tmp307
 892 00d8 07F01F07 		and	r7, r7, #31	@ _218, x2,
 893 00dc 1346     		mov	r3, r2	@ _35, _35
 894              	@ src/hebitmap_draw.h:65:             uint32_t shift_mask = ~(0xFFFFFFFF >> (x1 % 32));
ARM GAS  /var/folders/fr/v3bs66k977527trx432fyrqc0000gn/T//ccTJugNk.s 			page 37


  65:src/hebitmap_draw.h ****             int len = x2 - x1 / 32 * 32;
 895              		.loc 2 65 22 view .LVU205
 896 00de C943     		mvns	r1, r1	@ shift_mask, tmp308
 897              	@ src/hebitmap_draw.h:66:             int len = x2 - x1 / 32 * 32;
  66:src/hebitmap_draw.h ****             
 898              		.loc 2 66 26 view .LVU206
 899 00e0 0F92     		str	r2, [sp, #60]	@ _35, %sfp
 900 00e2 203A     		subs	r2, r2, #32	@ tmp392, _35,
 901 00e4 4344     		add	r3, r3, r8	@ tmp393,
 902              	@ src/hebitmap_draw.h:65:             uint32_t shift_mask = ~(0xFFFFFFFF >> (x1 % 32));
  65:src/hebitmap_draw.h ****             int len = x2 - x1 / 32 * 32;
 903              		.loc 2 65 22 view .LVU207
 904 00e6 1091     		str	r1, [sp, #64]	@ shift_mask, %sfp
 905              	.LBB185:
 906              	.LBB186:
 907              	@ src/hebitmap_draw.h:79:                     uint32_t clip_mask = 0xFFFFFFFF << (32 - len);
  79:src/hebitmap_draw.h ****                     data = (data & clip_mask) | (bswap32(*frame_ptr) & ~clip_mask);
 908              		.loc 2 79 60 view .LVU208
 909 00e8 C7F12001 		rsb	r1, r7, #32	@ tmp397, _218,
 910 00ec 23F01F03 		bic	r3, r3, #31	@ tmp394, tmp393,
 911              	@ src/hebitmap_draw.h:79:                     uint32_t clip_mask = 0xFFFFFFFF << (32 - len);
  79:src/hebitmap_draw.h ****                     data = (data & clip_mask) | (bswap32(*frame_ptr) & ~clip_mask);
 912              		.loc 2 79 30 view .LVU209
 913 00f0 08FA01F8 		lsl	r8, r8, r1	@ clip_mask, tmp303, tmp397
 914 00f4 A2EB030E 		sub	lr, r2, r3	@ _82, tmp392, tmp394
 915              	.LVL59:
 916              	.L40:
  79:src/hebitmap_draw.h ****                     data = (data & clip_mask) | (bswap32(*frame_ptr) & ~clip_mask);
 917              		.loc 2 79 30 view .LVU210
 918              	.LBE186:
 919              	.LBE185:
  58:src/hebitmap_draw.h ****             uint32_t *data_ptr = (uint32_t*)data_start;
 920              		.loc 2 58 13 is_stmt 1 view .LVU211
  59:src/hebitmap_draw.h ****             uint32_t data_left = bswap32(*frame_ptr);
 921              		.loc 2 59 13 view .LVU212
  60:src/hebitmap_draw.h **** #ifdef HEBITMAP_MASK
 922              		.loc 2 60 13 view .LVU213
 923              	.LBB209:
 924              	.LBI209:
 925              		.file 3 "src/hebitmap_prv.h"
   1:src/hebitmap_prv.h **** //
   2:src/hebitmap_prv.h **** //  hebitmap_prv.h
   3:src/hebitmap_prv.h **** //  HEBitmap
   4:src/hebitmap_prv.h **** //
   5:src/hebitmap_prv.h **** //  Created by Matteo D'Ignazio on 12/02/24.
   6:src/hebitmap_prv.h **** //
   7:src/hebitmap_prv.h **** 
   8:src/hebitmap_prv.h **** #ifndef hebitmap_prv_h
   9:src/hebitmap_prv.h **** #define hebitmap_prv_h
  10:src/hebitmap_prv.h **** 
  11:src/hebitmap_prv.h **** #include "hebitmap.h"
  12:src/hebitmap_prv.h **** 
  13:src/hebitmap_prv.h **** typedef struct _HEBitmap {
  14:src/hebitmap_prv.h ****     uint8_t *data;
  15:src/hebitmap_prv.h ****     uint8_t *mask;
  16:src/hebitmap_prv.h ****     int rowbytes;
  17:src/hebitmap_prv.h ****     int bx;
ARM GAS  /var/folders/fr/v3bs66k977527trx432fyrqc0000gn/T//ccTJugNk.s 			page 38


  18:src/hebitmap_prv.h ****     int by;
  19:src/hebitmap_prv.h ****     int bw;
  20:src/hebitmap_prv.h ****     int bh;
  21:src/hebitmap_prv.h ****     uint8_t *buffer;
  22:src/hebitmap_prv.h ****     int isOwner;
  23:src/hebitmap_prv.h ****     int hasData;
  24:src/hebitmap_prv.h ****     HEBitmapTable *bitmapTable;
  25:src/hebitmap_prv.h ****     LuaUDObject *luaRef;
  26:src/hebitmap_prv.h ****     LuaUDObject *luaTableRef;
  27:src/hebitmap_prv.h **** } _HEBitmap;
  28:src/hebitmap_prv.h **** 
  29:src/hebitmap_prv.h **** typedef struct _HEBitmapTable {
  30:src/hebitmap_prv.h ****     HEBitmap **bitmaps;
  31:src/hebitmap_prv.h ****     uint8_t *buffer;
  32:src/hebitmap_prv.h ****     int luaRefCount;
  33:src/hebitmap_prv.h ****     LuaUDObject *luaRef;
  34:src/hebitmap_prv.h **** } _HEBitmapTable;
  35:src/hebitmap_prv.h **** 
  36:src/hebitmap_prv.h **** typedef struct {
  37:src/hebitmap_prv.h ****     int x;
  38:src/hebitmap_prv.h ****     int y;
  39:src/hebitmap_prv.h ****     int width;
  40:src/hebitmap_prv.h ****     int height;
  41:src/hebitmap_prv.h **** } _HEBitmapRect;
  42:src/hebitmap_prv.h **** 
  43:src/hebitmap_prv.h **** extern _HEBitmapRect _clipRect;
  44:src/hebitmap_prv.h **** extern _HEBitmapRect clipRect;
  45:src/hebitmap_prv.h **** 
  46:src/hebitmap_prv.h **** void clip_bounds(HEBitmap *bitmap, int x, int y, unsigned int *x1, unsigned int *y1, unsigned int *
  47:src/hebitmap_prv.h **** 
  48:src/hebitmap_prv.h **** static inline int hebitmap_min(const int a, const int b)
  49:src/hebitmap_prv.h **** {
  50:src/hebitmap_prv.h ****     return a < b ? a : b;
  51:src/hebitmap_prv.h **** }
  52:src/hebitmap_prv.h **** 
  53:src/hebitmap_prv.h **** static inline int hebitmap_max(const int a, const int b)
  54:src/hebitmap_prv.h **** {
  55:src/hebitmap_prv.h ****     return a > b ? a : b;
  56:src/hebitmap_prv.h **** }
  57:src/hebitmap_prv.h **** 
  58:src/hebitmap_prv.h **** static inline uint32_t bswap32(uint32_t n)
 926              		.loc 3 58 24 view .LVU214
 927              	.LBB210:
  59:src/hebitmap_prv.h **** {
  60:src/hebitmap_prv.h **** #if TARGET_PLAYDATE
  61:src/hebitmap_prv.h ****     uint32_t r;
 928              		.loc 3 61 5 view .LVU215
  62:src/hebitmap_prv.h ****     __asm("rev %0, %1" : "=r"(r) : "r"(n));
 929              		.loc 3 62 5 view .LVU216
 930              	.LBE210:
 931              	.LBE209:
 932              	@ src/hebitmap_draw.h:68:             while(len > 0)
  68:src/hebitmap_draw.h ****             {
 933              		.loc 2 68 18 is_stmt 0 view .LVU217
 934 00f8 0F9A     		ldr	r2, [sp, #60]	@ _35, %sfp
 935              	.LBB213:
 936              	.LBB211:
ARM GAS  /var/folders/fr/v3bs66k977527trx432fyrqc0000gn/T//ccTJugNk.s 			page 39


 937              	@ src/hebitmap_prv.h:62:     __asm("rev %0, %1" : "=r"(r) : "r"(n));
 938              		.loc 3 62 5 view .LVU218
 939 00fa 0368     		ldr	r3, [r0]	@ MEM[base: frame_start_194, offset: 0B], MEM[base: frame_start_194, offset: 0B]
 940              	.LBE211:
 941              	.LBE213:
 942              	@ src/hebitmap_draw.h:68:             while(len > 0)
  68:src/hebitmap_draw.h ****             {
 943              		.loc 2 68 18 view .LVU219
 944 00fc 002A     		cmp	r2, #0	@ _35,
 945              	.LBB214:
 946              	.LBB212:
 947              	@ src/hebitmap_prv.h:62:     __asm("rev %0, %1" : "=r"(r) : "r"(n));
 948              		.loc 3 62 5 view .LVU220
 949              		.syntax unified
 950              	@ 62 "src/hebitmap_prv.h" 1
 951 00fe 93FA83FB 		rev fp, r3	@ r, MEM[base: frame_start_194, offset: 0B]
 952              	@ 0 "" 2
 953              	.LVL60:
  63:src/hebitmap_prv.h ****     return r;
 954              		.loc 3 63 5 is_stmt 1 view .LVU221
 955              		.loc 3 63 5 is_stmt 0 view .LVU222
 956              		.thumb
 957              		.syntax unified
 958              	.LBE212:
 959              	.LBE214:
  65:src/hebitmap_draw.h ****             int len = x2 - x1 / 32 * 32;
 960              		.loc 2 65 13 is_stmt 1 view .LVU223
  66:src/hebitmap_draw.h ****             
 961              		.loc 2 66 13 view .LVU224
  68:src/hebitmap_draw.h ****             {
 962              		.loc 2 68 13 view .LVU225
  68:src/hebitmap_draw.h ****             {
 963              		.loc 2 68 18 view .LVU226
 964 0102 2BDD     		ble	.L36		@,
  68:src/hebitmap_draw.h ****             {
 965              		.loc 2 68 18 is_stmt 0 view .LVU227
 966 0104 0B99     		ldr	r1, [sp, #44]	@ ivtmp.297, %sfp
 967 0106 0446     		mov	r4, r0	@ frame_ptr, frame_start
 968              	@ src/hebitmap_draw.h:65:             uint32_t shift_mask = ~(0xFFFFFFFF >> (x1 % 32));
  65:src/hebitmap_draw.h ****             int len = x2 - x1 / 32 * 32;
 969              		.loc 2 65 22 view .LVU228
 970 0108 109E     		ldr	r6, [sp, #64]	@ shift_mask, %sfp
 971              	.LBB215:
 972              	@ src/hebitmap_draw.h:86:                 data_left = bswap32(*data_ptr++) << (32 - shift);
  86:src/hebitmap_draw.h **** #ifdef HEBITMAP_MASK
 973              		.loc 2 86 57 view .LVU229
 974 010a C5F1200A 		rsb	r10, r5, #32	@ tmp389, shift,
 975 010e 5B46     		mov	r3, fp	@ r, r
 976 0110 09E0     		b	.L38		@
 977              	.LVL61:
 978              	.L37:
  86:src/hebitmap_draw.h **** #ifdef HEBITMAP_MASK
 979              		.loc 2 86 57 view .LVU230
 980              	.LBE215:
 981              	@ src/hebitmap_draw.h:68:             while(len > 0)
  68:src/hebitmap_draw.h ****             {
 982              		.loc 2 68 18 view .LVU231
ARM GAS  /var/folders/fr/v3bs66k977527trx432fyrqc0000gn/T//ccTJugNk.s 			page 40


 983 0112 9645     		cmp	lr, r2	@ _82, len
 984              	.LBB216:
 985              	.LBB189:
 986              	.LBB190:
 987              	@ src/hebitmap_prv.h:62:     __asm("rev %0, %1" : "=r"(r) : "r"(n));
  62:src/hebitmap_prv.h ****     return r;
 988              		.loc 3 62 5 view .LVU232
 989              		.syntax unified
 990              	@ 62 "src/hebitmap_prv.h" 1
 991 0114 1BBA     		rev r3, r3	@ r, data
 992              	@ 0 "" 2
 993              	.LVL62:
 994              		.loc 3 63 5 is_stmt 1 view .LVU233
 995              		.loc 3 63 5 is_stmt 0 view .LVU234
 996              		.thumb
 997              		.syntax unified
 998              	.LBE190:
 999              	.LBE189:
 1000              	@ src/hebitmap_draw.h:83:                 *frame_ptr++ = bswap32(data);
  83:src/hebitmap_draw.h ****                 
 1001              		.loc 2 83 30 view .LVU235
 1002 0116 44F8043B 		str	r3, [r4], #4	@ r, MEM[base: frame_ptr_169, offset: 4294967292B]
 1003              	.LVL63:
  86:src/hebitmap_draw.h **** #ifdef HEBITMAP_MASK
 1004              		.loc 2 86 17 is_stmt 1 view .LVU236
 1005              	.LBB194:
 1006              	.LBI194:
  58:src/hebitmap_prv.h **** {
 1007              		.loc 3 58 24 view .LVU237
 1008              	.LBB195:
  61:src/hebitmap_prv.h ****     __asm("rev %0, %1" : "=r"(r) : "r"(n));
 1009              		.loc 3 61 5 view .LVU238
  62:src/hebitmap_prv.h ****     return r;
 1010              		.loc 3 62 5 view .LVU239
 1011 011a 51F8043C 		ldr	r3, [r1, #-4]	@ MEM[base: _78, offset: 4294967292B], MEM[base: _78, offset: 4294967292B]
 1012              		.syntax unified
 1013              	@ 62 "src/hebitmap_prv.h" 1
 1014 011e 1BBA     		rev r3, r3	@ r, MEM[base: _78, offset: 4294967292B]
 1015              	@ 0 "" 2
 1016              	.LVL64:
 1017              		.loc 3 63 5 view .LVU240
 1018              		.loc 3 63 5 is_stmt 0 view .LVU241
 1019              		.thumb
 1020              		.syntax unified
 1021              	.LBE195:
 1022              	.LBE194:
 1023              	@ src/hebitmap_draw.h:86:                 data_left = bswap32(*data_ptr++) << (32 - shift);
  86:src/hebitmap_draw.h **** #ifdef HEBITMAP_MASK
 1024              		.loc 2 86 27 view .LVU242
 1025 0120 03FA0AF3 		lsl	r3, r3, r10	@ r, r, tmp389
 1026              	.LVL65:
  91:src/hebitmap_draw.h ****                 len -= 32;
 1027              		.loc 2 91 17 is_stmt 1 view .LVU243
  92:src/hebitmap_draw.h ****             }
 1028              		.loc 2 92 17 view .LVU244
  92:src/hebitmap_draw.h ****             }
 1029              		.loc 2 92 17 is_stmt 0 view .LVU245
ARM GAS  /var/folders/fr/v3bs66k977527trx432fyrqc0000gn/T//ccTJugNk.s 			page 41


 1030              	.LBE216:
  68:src/hebitmap_draw.h ****             {
 1031              		.loc 2 68 18 is_stmt 1 view .LVU246
 1032 0124 1AD0     		beq	.L36		@,
 1033              	.LVL66:
 1034              	.L38:
 1035              	.LBB217:
  70:src/hebitmap_draw.h ****                 uint32_t data = (data_left & shift_mask) | (data_right & ~shift_mask);
 1036              		.loc 2 70 17 view .LVU247
 1037              	.LBB197:
 1038              	.LBI197:
  58:src/hebitmap_prv.h **** {
 1039              		.loc 3 58 24 view .LVU248
 1040              	.LBB198:
  61:src/hebitmap_prv.h ****     __asm("rev %0, %1" : "=r"(r) : "r"(n));
 1041              		.loc 3 61 5 view .LVU249
  62:src/hebitmap_prv.h ****     return r;
 1042              		.loc 3 62 5 view .LVU250
 1043 0126 D1F800B0 		ldr	fp, [r1]	@ MEM[base: data_ptr_99, offset: 0B], MEM[base: data_ptr_99, offset: 0B]
 1044              	.LBE198:
 1045              	.LBE197:
 1046              	@ src/hebitmap_draw.h:77:                 if(len < 32)
  77:src/hebitmap_draw.h ****                 {
 1047              		.loc 2 77 19 is_stmt 0 view .LVU251
 1048 012a 9742     		cmp	r7, r2	@ _218, len
 1049              	.LBB201:
 1050              	.LBB199:
 1051              	@ src/hebitmap_prv.h:62:     __asm("rev %0, %1" : "=r"(r) : "r"(n));
  62:src/hebitmap_prv.h ****     return r;
 1052              		.loc 3 62 5 view .LVU252
 1053              		.syntax unified
 1054              	@ 62 "src/hebitmap_prv.h" 1
 1055 012c 9BFA8BFB 		rev fp, fp	@ r, MEM[base: data_ptr_99, offset: 0B]
 1056              	@ 0 "" 2
 1057              	.LVL67:
 1058              		.loc 3 63 5 is_stmt 1 view .LVU253
 1059              		.loc 3 63 5 is_stmt 0 view .LVU254
 1060              		.thumb
 1061              		.syntax unified
 1062              	.LBE199:
 1063              	.LBE201:
 1064              	@ src/hebitmap_draw.h:70:                 uint32_t data_right = bswap32(*data_ptr) >> shift;
  70:src/hebitmap_draw.h ****                 uint32_t data = (data_left & shift_mask) | (data_right & ~shift_mask);
 1065              		.loc 2 70 26 view .LVU255
 1066 0130 2BFA05FB 		lsr	fp, fp, r5	@ data_right, r, shift
 1067              	.LVL68:
  71:src/hebitmap_draw.h **** #ifdef HEBITMAP_MASK
 1068              		.loc 2 71 17 is_stmt 1 view .LVU256
 1069              	.LBB202:
 1070              	.LBB200:
 1071              	@ src/hebitmap_prv.h:62:     __asm("rev %0, %1" : "=r"(r) : "r"(n));
  62:src/hebitmap_prv.h ****     return r;
 1072              		.loc 3 62 5 is_stmt 0 view .LVU257
 1073 0134 01F10401 		add	r1, r1, #4	@ ivtmp.297, ivtmp.297,
 1074              	.LVL69:
  62:src/hebitmap_prv.h ****     return r;
 1075              		.loc 3 62 5 view .LVU258
ARM GAS  /var/folders/fr/v3bs66k977527trx432fyrqc0000gn/T//ccTJugNk.s 			page 42


 1076              	.LBE200:
 1077              	.LBE202:
 1078              	@ src/hebitmap_draw.h:92:                 len -= 32;
  92:src/hebitmap_draw.h ****             }
 1079              		.loc 2 92 21 view .LVU259
 1080 0138 A2F12002 		sub	r2, r2, #32	@ len, len,
 1081              	@ src/hebitmap_draw.h:71:                 uint32_t data = (data_left & shift_mask) | (data_right & 
  71:src/hebitmap_draw.h **** #ifdef HEBITMAP_MASK
 1082              		.loc 2 71 26 view .LVU260
 1083 013c 8BEA0303 		eor	r3, fp, r3	@ tmp319, data_right, r
 1084              	.LVL70:
  71:src/hebitmap_draw.h **** #ifdef HEBITMAP_MASK
 1085              		.loc 2 71 26 view .LVU261
 1086 0140 03EA0603 		and	r3, r3, r6	@ tmp320, tmp319, shift_mask
 1087              	@ src/hebitmap_draw.h:91:                 shift_mask = og_shift_mask;
  91:src/hebitmap_draw.h ****                 len -= 32;
 1088              		.loc 2 91 28 view .LVU262
 1089 0144 6646     		mov	r6, ip	@ shift_mask, og_shift_mask
 1090              	.LVL71:
 1091              	@ src/hebitmap_draw.h:71:                 uint32_t data = (data_left & shift_mask) | (data_right & 
  71:src/hebitmap_draw.h **** #ifdef HEBITMAP_MASK
 1092              		.loc 2 71 26 view .LVU263
 1093 0146 83EA0B03 		eor	r3, r3, fp	@ data, tmp320, data_right
 1094              	.LVL72:
  77:src/hebitmap_draw.h ****                 {
 1095              		.loc 2 77 17 is_stmt 1 view .LVU264
  83:src/hebitmap_draw.h ****                 
 1096              		.loc 2 83 17 view .LVU265
 1097              	.LBB203:
 1098              	.LBI189:
  58:src/hebitmap_prv.h **** {
 1099              		.loc 3 58 24 view .LVU266
 1100              	.LBB191:
  61:src/hebitmap_prv.h ****     __asm("rev %0, %1" : "=r"(r) : "r"(n));
 1101              		.loc 3 61 5 view .LVU267
  62:src/hebitmap_prv.h ****     return r;
 1102              		.loc 3 62 5 view .LVU268
 1103              	.LBE191:
 1104              	.LBE203:
 1105              	@ src/hebitmap_draw.h:77:                 if(len < 32)
  77:src/hebitmap_draw.h ****                 {
 1106              		.loc 2 77 19 is_stmt 0 view .LVU269
 1107 014a E2D1     		bne	.L37		@,
 1108              	.LVL73:
 1109              	.LBB204:
  79:src/hebitmap_draw.h ****                     data = (data & clip_mask) | (bswap32(*frame_ptr) & ~clip_mask);
 1110              		.loc 2 79 21 is_stmt 1 view .LVU270
  80:src/hebitmap_draw.h ****                 }
 1111              		.loc 2 80 21 view .LVU271
 1112              	.LBB187:
 1113              	.LBI187:
  58:src/hebitmap_prv.h **** {
 1114              		.loc 3 58 24 view .LVU272
 1115              	.LBB188:
  61:src/hebitmap_prv.h ****     __asm("rev %0, %1" : "=r"(r) : "r"(n));
 1116              		.loc 3 61 5 view .LVU273
  62:src/hebitmap_prv.h ****     return r;
ARM GAS  /var/folders/fr/v3bs66k977527trx432fyrqc0000gn/T//ccTJugNk.s 			page 43


 1117              		.loc 3 62 5 view .LVU274
 1118 014c 2268     		ldr	r2, [r4]	@ *frame_ptr_212, *frame_ptr_212
 1119              		.syntax unified
 1120              	@ 62 "src/hebitmap_prv.h" 1
 1121 014e 12BA     		rev r2, r2	@ r, *frame_ptr_212
 1122              	@ 0 "" 2
 1123              	.LVL74:
 1124              		.loc 3 63 5 view .LVU275
 1125              		.loc 3 63 5 is_stmt 0 view .LVU276
 1126              		.thumb
 1127              		.syntax unified
 1128 0150 5340     		eors	r3, r3, r2	@, tmp326, data, r
 1129              	.LVL75:
 1130              		.loc 3 63 5 view .LVU277
 1131 0152 08EA0303 		and	r3, r8, r3	@ _70, clip_mask, tmp326
 1132              	.LVL76:
 1133              		.loc 3 63 5 view .LVU278
 1134              	.LBE188:
 1135              	.LBE187:
 1136              	.LBE204:
  83:src/hebitmap_draw.h ****                 
 1137              		.loc 2 83 17 is_stmt 1 view .LVU279
 1138              	.LBB205:
  58:src/hebitmap_prv.h **** {
 1139              		.loc 3 58 24 view .LVU280
 1140              	.LBB192:
  61:src/hebitmap_prv.h ****     __asm("rev %0, %1" : "=r"(r) : "r"(n));
 1141              		.loc 3 61 5 view .LVU281
  62:src/hebitmap_prv.h ****     return r;
 1142              		.loc 3 62 5 view .LVU282
 1143              	.LBE192:
 1144              	.LBE205:
 1145              	.LBB206:
 1146              	@ src/hebitmap_draw.h:80:                     data = (data & clip_mask) | (bswap32(*frame_ptr) & ~c
  80:src/hebitmap_draw.h ****                 }
 1147              		.loc 2 80 26 is_stmt 0 view .LVU283
 1148 0156 5A40     		eors	r2, r2, r3	@, data, r, _70
 1149              	.LVL77:
  80:src/hebitmap_draw.h ****                 }
 1150              		.loc 2 80 26 view .LVU284
 1151              	.LBE206:
 1152              	.LBB207:
 1153              	.LBB193:
 1154              	@ src/hebitmap_prv.h:62:     __asm("rev %0, %1" : "=r"(r) : "r"(n));
  62:src/hebitmap_prv.h ****     return r;
 1155              		.loc 3 62 5 view .LVU285
 1156              		.syntax unified
 1157              	@ 62 "src/hebitmap_prv.h" 1
 1158 0158 12BA     		rev r2, r2	@ r, data
 1159              	@ 0 "" 2
 1160              	.LVL78:
 1161              		.loc 3 63 5 is_stmt 1 view .LVU286
 1162              		.loc 3 63 5 is_stmt 0 view .LVU287
 1163              		.thumb
 1164              		.syntax unified
 1165              	.LBE193:
 1166              	.LBE207:
ARM GAS  /var/folders/fr/v3bs66k977527trx432fyrqc0000gn/T//ccTJugNk.s 			page 44


 1167              	@ src/hebitmap_draw.h:83:                 *frame_ptr++ = bswap32(data);
  83:src/hebitmap_draw.h ****                 
 1168              		.loc 2 83 30 view .LVU288
 1169 015a 2260     		str	r2, [r4]	@ r, *frame_ptr_212
  86:src/hebitmap_draw.h **** #ifdef HEBITMAP_MASK
 1170              		.loc 2 86 17 is_stmt 1 view .LVU289
 1171              	.LVL79:
 1172              	.LBB208:
  58:src/hebitmap_prv.h **** {
 1173              		.loc 3 58 24 view .LVU290
 1174              	.LBB196:
  61:src/hebitmap_prv.h ****     __asm("rev %0, %1" : "=r"(r) : "r"(n));
 1175              		.loc 3 61 5 view .LVU291
  62:src/hebitmap_prv.h ****     return r;
 1176              		.loc 3 62 5 view .LVU292
 1177              		.loc 3 63 5 view .LVU293
 1178              		.loc 3 63 5 is_stmt 0 view .LVU294
 1179              	.LBE196:
 1180              	.LBE208:
  91:src/hebitmap_draw.h ****                 len -= 32;
 1181              		.loc 2 91 17 is_stmt 1 view .LVU295
  92:src/hebitmap_draw.h ****             }
 1182              		.loc 2 92 17 view .LVU296
  92:src/hebitmap_draw.h ****             }
 1183              		.loc 2 92 17 is_stmt 0 view .LVU297
 1184              	.LBE217:
  68:src/hebitmap_draw.h ****             {
 1185              		.loc 2 68 18 is_stmt 1 view .LVU298
 1186              	.L36:
  95:src/hebitmap_draw.h ****             data_start += prv->rowbytes;
 1187              		.loc 2 95 13 discriminator 2 view .LVU299
 1188              	@ src/hebitmap_draw.h:96:             data_start += prv->rowbytes;
  96:src/hebitmap_draw.h **** #ifdef HEBITMAP_MASK
 1189              		.loc 2 96 24 is_stmt 0 discriminator 2 view .LVU300
 1190 015c 0B9B     		ldr	r3, [sp, #44]	@ data_start, %sfp
 1191              	.LBE218:
 1192              	@ src/hebitmap_draw.h:56:         for(int row = y1; row < y2; row++)
  56:src/hebitmap_draw.h ****         {
 1193              		.loc 2 56 40 discriminator 2 view .LVU301
 1194 015e 09F10109 		add	r9, r9, #1	@ row, row,
 1195              	.LVL80:
 1196              	.LBB219:
 1197              	@ src/hebitmap_draw.h:96:             data_start += prv->rowbytes;
  96:src/hebitmap_draw.h **** #ifdef HEBITMAP_MASK
 1198              		.loc 2 96 24 discriminator 2 view .LVU302
 1199 0162 0E9A     		ldr	r2, [sp, #56]	@ _26, %sfp
 1200              	@ src/hebitmap_draw.h:95:             frame_start += LCD_ROWSIZE;
  95:src/hebitmap_draw.h ****             data_start += prv->rowbytes;
 1201              		.loc 2 95 25 discriminator 2 view .LVU303
 1202 0164 3430     		adds	r0, r0, #52	@ frame_start, frame_start,
 1203              	.LVL81:
  96:src/hebitmap_draw.h **** #ifdef HEBITMAP_MASK
 1204              		.loc 2 96 13 is_stmt 1 discriminator 2 view .LVU304
 1205              	@ src/hebitmap_draw.h:96:             data_start += prv->rowbytes;
  96:src/hebitmap_draw.h **** #ifdef HEBITMAP_MASK
 1206              		.loc 2 96 24 is_stmt 0 discriminator 2 view .LVU305
 1207 0166 1344     		add	r3, r3, r2	@ data_start, _26
ARM GAS  /var/folders/fr/v3bs66k977527trx432fyrqc0000gn/T//ccTJugNk.s 			page 45


 1208 0168 0B93     		str	r3, [sp, #44]	@ data_start, %sfp
 1209              	.LVL82:
  96:src/hebitmap_draw.h **** #ifdef HEBITMAP_MASK
 1210              		.loc 2 96 24 discriminator 2 view .LVU306
 1211              	.LBE219:
  56:src/hebitmap_draw.h ****         {
 1212              		.loc 2 56 37 is_stmt 1 discriminator 2 view .LVU307
  56:src/hebitmap_draw.h ****         {
 1213              		.loc 2 56 27 discriminator 2 view .LVU308
 1214              	@ src/hebitmap_draw.h:56:         for(int row = y1; row < y2; row++)
  56:src/hebitmap_draw.h ****         {
 1215              		.loc 2 56 9 is_stmt 0 discriminator 2 view .LVU309
 1216 016a 0C9B     		ldr	r3, [sp, #48]	@ prephitmp_42, %sfp
 1217              	.LVL83:
  56:src/hebitmap_draw.h ****         {
 1218              		.loc 2 56 9 discriminator 2 view .LVU310
 1219 016c 4B45     		cmp	r3, r9	@ prephitmp_42, row
 1220 016e C3D1     		bne	.L40		@,
 1221              	.LVL84:
 1222              	.L34:
  56:src/hebitmap_draw.h ****         {
 1223              		.loc 2 56 9 discriminator 2 view .LVU311
 1224              	.LBE222:
 1225              	.LBE182:
 190:src/hebitmap_draw.h **** }
 1226              		.loc 2 190 5 is_stmt 1 discriminator 1 view .LVU312
 1227              	@ src/hebitmap_draw.h:190:     playdate->graphics->markUpdatedRows(y1, y2 - 1);
 190:src/hebitmap_draw.h **** }
 1228              		.loc 2 190 23 is_stmt 0 discriminator 1 view .LVU313
 1229 0170 0D9B     		ldr	r3, [sp, #52]	@ playdate, %sfp
 1230              	@ src/hebitmap_draw.h:190:     playdate->graphics->markUpdatedRows(y1, y2 - 1);
 190:src/hebitmap_draw.h **** }
 1231              		.loc 2 190 5 discriminator 1 view .LVU314
 1232 0172 0C9A     		ldr	r2, [sp, #48]	@ prephitmp_42, %sfp
 1233              	@ src/hebitmap_draw.h:190:     playdate->graphics->markUpdatedRows(y1, y2 - 1);
 190:src/hebitmap_draw.h **** }
 1234              		.loc 2 190 23 discriminator 1 view .LVU315
 1235 0174 9B68     		ldr	r3, [r3, #8]	@ playdate_119(D)->graphics, playdate_119(D)->graphics
 1236              	@ src/hebitmap_draw.h:190:     playdate->graphics->markUpdatedRows(y1, y2 - 1);
 190:src/hebitmap_draw.h **** }
 1237              		.loc 2 190 5 discriminator 1 view .LVU316
 1238 0176 511E     		subs	r1, r2, #1	@, prephitmp_42,
 1239 0178 1198     		ldr	r0, [sp, #68]	@, %sfp
 1240 017a D3F8B430 		ldr	r3, [r3, #180]	@ _76->markUpdatedRows, _76->markUpdatedRows
 1241 017e 9847     		blx	r3		@ _76->markUpdatedRows
 1242              	.LVL85:
 1243              	@ src/hebitmap_draw.h:191: }
 1244              		.loc 2 191 1 discriminator 1 view .LVU317
 1245 0180 19B0     		add	sp, sp, #100	@,,
 1246              	.LCFI9:
 1247              		.cfi_remember_state
 1248              		.cfi_def_cfa_offset 36
 1249              		@ sp needed	@
 1250 0182 BDE8F08F 		pop	{r4, r5, r6, r7, r8, r9, r10, fp, pc}	@
 1251              	.LVL86:
 1252              	.L33:
 1253              	.LCFI10:
ARM GAS  /var/folders/fr/v3bs66k977527trx432fyrqc0000gn/T//ccTJugNk.s 			page 46


 1254              		.cfi_restore_state
 1255              	.LBB223:
 114:src/hebitmap_draw.h ****         
 1256              		.loc 2 114 9 is_stmt 1 view .LVU318
 1257              	@ src/hebitmap_draw.h:114:         int shift = (unsigned int)abs(x) % 32;
 114:src/hebitmap_draw.h ****         
 1258              		.loc 2 114 35 is_stmt 0 view .LVU319
 1259 0186 85EAE577 		eor	r7, r5, r5, asr #31	@ tmp335, x, x,
 1260              	@ src/hebitmap_draw.h:125:         if(x >= 0 && shift > 0)
 125:src/hebitmap_draw.h ****         {
 1261              		.loc 2 125 11 view .LVU320
 1262 018a 002D     		cmp	r5, #0	@ x,
 1263              	@ src/hebitmap_draw.h:114:         int shift = (unsigned int)abs(x) % 32;
 114:src/hebitmap_draw.h ****         
 1264              		.loc 2 114 35 view .LVU321
 1265 018c A7EBE577 		sub	r7, r7, r5, asr #31	@ tmp335, tmp335, x,
 1266              	@ src/hebitmap_draw.h:114:         int shift = (unsigned int)abs(x) % 32;
 114:src/hebitmap_draw.h ****         
 1267              		.loc 2 114 13 view .LVU322
 1268 0190 07F01F07 		and	r7, r7, #31	@ shift, tmp335,
 1269              	.LVL87:
 125:src/hebitmap_draw.h ****         {
 1270              		.loc 2 125 9 is_stmt 1 view .LVU323
 1271              	@ src/hebitmap_draw.h:125:         if(x >= 0 && shift > 0)
 125:src/hebitmap_draw.h ****         {
 1272              		.loc 2 125 11 is_stmt 0 view .LVU324
 1273 0194 02DB     		blt	.L41		@,
 1274 0196 0FB1     		cbz	r7, .L41	@ shift,
 127:src/hebitmap_draw.h ****         }
 1275              		.loc 2 127 13 is_stmt 1 view .LVU325
 1276              	@ src/hebitmap_draw.h:127:             shift = 32 - shift;
 127:src/hebitmap_draw.h ****         }
 1277              		.loc 2 127 19 is_stmt 0 view .LVU326
 1278 0198 C7F12007 		rsb	r7, r7, #32	@ shift, shift,
 1279              	.LVL88:
 1280              	.L41:
 129:src/hebitmap_draw.h **** 
 1281              		.loc 2 129 9 is_stmt 1 view .LVU327
 1282              	@ src/hebitmap_draw.h:132:         int data_offset = offset_top * prv->rowbytes + offset_32 / 32 * 
 132:src/hebitmap_draw.h ****         
 1283              		.loc 2 132 43 is_stmt 0 view .LVU328
 1284 019c A668     		ldr	r6, [r4, #8]	@ _50, prv_113->rowbytes
 1285              	@ src/hebitmap_draw.h:131:         unsigned int offset_32 = x1 / 32 * 32 - x;
 131:src/hebitmap_draw.h ****         int data_offset = offset_top * prv->rowbytes + offset_32 / 32 * 4;
 1286              		.loc 2 131 22 view .LVU329
 1287 019e 5D1B     		subs	r5, r3, r5	@ offset_32, _47, x
 1288              	.LVL89:
 1289              	@ src/hebitmap_draw.h:132:         int data_offset = offset_top * prv->rowbytes + offset_32 / 32 * 
 132:src/hebitmap_draw.h ****         
 1290              		.loc 2 132 38 view .LVU330
 1291 01a0 179A     		ldr	r2, [sp, #92]	@ offset_top, offset_top
 1292              	@ src/hebitmap_draw.h:129:         uint32_t shift_mask = 0xFFFFFFFF << shift;
 129:src/hebitmap_draw.h **** 
 1293              		.loc 2 129 18 view .LVU331
 1294 01a2 4FF0FF3B 		mov	fp, #-1	@ tmp344,
 1295              	@ src/hebitmap_draw.h:132:         int data_offset = offset_top * prv->rowbytes + offset_32 / 32 * 
 132:src/hebitmap_draw.h ****         
ARM GAS  /var/folders/fr/v3bs66k977527trx432fyrqc0000gn/T//ccTJugNk.s 			page 47


 1296              		.loc 2 132 66 view .LVU332
 1297 01a6 6D09     		lsrs	r5, r5, #5	@ tmp346, offset_32,
 1298              	@ src/hebitmap_draw.h:134:         uint8_t *data_start = prv->data + data_offset;
 134:src/hebitmap_draw.h **** #ifdef HEBITMAP_MASK
 1299              		.loc 2 134 18 view .LVU333
 1300 01a8 2468     		ldr	r4, [r4]	@ prv_113->data, prv_113->data
 1301              	.LVL90:
 1302              	@ src/hebitmap_draw.h:132:         int data_offset = offset_top * prv->rowbytes + offset_32 / 32 * 
 132:src/hebitmap_draw.h ****         
 1303              		.loc 2 132 38 view .LVU334
 1304 01aa 02FB06F2 		mul	r2, r2, r6	@ tmp348, offset_top, _50
 1305              	@ src/hebitmap_draw.h:129:         uint32_t shift_mask = 0xFFFFFFFF << shift;
 129:src/hebitmap_draw.h **** 
 1306              		.loc 2 129 18 view .LVU335
 1307 01ae 0BFA07FE 		lsl	lr, fp, r7	@ shift_mask, tmp344, shift
 1308              	@ src/hebitmap_draw.h:132:         int data_offset = offset_top * prv->rowbytes + offset_32 / 32 * 
 132:src/hebitmap_draw.h ****         
 1309              		.loc 2 132 43 view .LVU336
 1310 01b2 0E96     		str	r6, [sp, #56]	@ _50, %sfp
 1311              	.LVL91:
 131:src/hebitmap_draw.h ****         int data_offset = offset_top * prv->rowbytes + offset_32 / 32 * 4;
 1312              		.loc 2 131 9 is_stmt 1 view .LVU337
 132:src/hebitmap_draw.h ****         
 1313              		.loc 2 132 9 view .LVU338
 134:src/hebitmap_draw.h **** #ifdef HEBITMAP_MASK
 1314              		.loc 2 134 9 view .LVU339
 1315              	@ src/hebitmap_draw.h:132:         int data_offset = offset_top * prv->rowbytes + offset_32 / 32 * 
 132:src/hebitmap_draw.h ****         
 1316              		.loc 2 132 54 is_stmt 0 view .LVU340
 1317 01b4 02EB8505 		add	r5, r2, r5, lsl #2	@ tmp350, tmp348, tmp346,
 1318              	.LBB224:
 1319              	@ src/hebitmap_draw.h:138:         for(int row = y1; row < y2; row++)
 138:src/hebitmap_draw.h ****         {
 1320              		.loc 2 138 31 view .LVU341
 1321 01b8 159E     		ldr	r6, [sp, #84]	@ prephitmp_42, y2
 138:src/hebitmap_draw.h ****         {
 1322              		.loc 2 138 31 view .LVU342
 1323              	.LBE224:
 1324              	@ src/hebitmap_draw.h:134:         uint8_t *data_start = prv->data + data_offset;
 134:src/hebitmap_draw.h **** #ifdef HEBITMAP_MASK
 1325              		.loc 2 134 18 view .LVU343
 1326 01ba 04EB0509 		add	r9, r4, r5	@ data_start, prv_113->data, tmp350
 1327              	.LVL92:
 138:src/hebitmap_draw.h ****         {
 1328              		.loc 2 138 9 is_stmt 1 view .LVU344
 1329              	.LBB272:
 138:src/hebitmap_draw.h ****         {
 1330              		.loc 2 138 13 view .LVU345
 138:src/hebitmap_draw.h ****         {
 1331              		.loc 2 138 27 view .LVU346
 1332              	@ src/hebitmap_draw.h:138:         for(int row = y1; row < y2; row++)
 138:src/hebitmap_draw.h ****         {
 1333              		.loc 2 138 9 is_stmt 0 view .LVU347
 1334 01be 119C     		ldr	r4, [sp, #68]	@ y1.0_16, %sfp
 1335              	@ src/hebitmap_draw.h:138:         for(int row = y1; row < y2; row++)
 138:src/hebitmap_draw.h ****         {
 1336              		.loc 2 138 31 view .LVU348
ARM GAS  /var/folders/fr/v3bs66k977527trx432fyrqc0000gn/T//ccTJugNk.s 			page 48


 1337 01c0 0C96     		str	r6, [sp, #48]	@ prephitmp_42, %sfp
 1338              	@ src/hebitmap_draw.h:138:         for(int row = y1; row < y2; row++)
 138:src/hebitmap_draw.h ****         {
 1339              		.loc 2 138 9 view .LVU349
 1340 01c2 B442     		cmp	r4, r6	@ y1.0_16, prephitmp_42
 1341 01c4 D4D2     		bcs	.L34		@,
 1342              	.LBB225:
 1343              	@ src/hebitmap_draw.h:148:             int len = x2 - x1 / 32 * 32;
 148:src/hebitmap_draw.h ****             
 1344              		.loc 2 148 26 view .LVU350
 1345 01c6 149A     		ldr	r2, [sp, #80]	@ x2, x2
 1346              	@ src/hebitmap_draw.h:147:             uint32_t clip_left_mask = ~(0xFFFFFFFF >> (x1 % 32));
 147:src/hebitmap_draw.h ****             int len = x2 - x1 / 32 * 32;
 1347              		.loc 2 147 59 view .LVU351
 1348 01c8 01F01F01 		and	r1, r1, #31	@ tmp352, x1.1_18,
 1349              	.LBB226:
 1350              	.LBB227:
 1351              	@ src/hebitmap_draw.h:167:                     uint32_t clip_right_mask = 0xFFFFFFFF << (32 - len);
 167:src/hebitmap_draw.h ****                     data = (data & clip_right_mask) | (bswap32(*frame_ptr) & ~clip_right_mask);
 1352              		.loc 2 167 30 view .LVU352
 1353 01cc 8246     		mov	r10, r0	@ frame_start, frame_start
 1354              	.LVL93:
 167:src/hebitmap_draw.h ****                     data = (data & clip_right_mask) | (bswap32(*frame_ptr) & ~clip_right_mask);
 1355              		.loc 2 167 30 view .LVU353
 1356              	.LBE227:
 1357              	.LBE226:
 1358              	.LBE225:
 1359              	@ src/hebitmap_draw.h:138:         for(int row = y1; row < y2; row++)
 138:src/hebitmap_draw.h ****         {
 1360              		.loc 2 138 17 view .LVU354
 1361 01ce 0B94     		str	r4, [sp, #44]	@ y1.0_16, %sfp
 1362              	.LBB269:
 1363              	@ src/hebitmap_draw.h:148:             int len = x2 - x1 / 32 * 32;
 148:src/hebitmap_draw.h ****             
 1364              		.loc 2 148 26 view .LVU355
 1365 01d0 D21A     		subs	r2, r2, r3	@ _63, x2, _47
 1366              	@ src/hebitmap_draw.h:147:             uint32_t clip_left_mask = ~(0xFFFFFFFF >> (x1 % 32));
 147:src/hebitmap_draw.h ****             int len = x2 - x1 / 32 * 32;
 1367              		.loc 2 147 52 view .LVU356
 1368 01d2 2BFA01F3 		lsr	r3, fp, r1	@ tmp353, tmp344, tmp352
 147:src/hebitmap_draw.h ****             int len = x2 - x1 / 32 * 32;
 1369              		.loc 2 147 52 view .LVU357
 1370 01d6 1146     		mov	r1, r2	@ _63, _63
 1371              	@ src/hebitmap_draw.h:147:             uint32_t clip_left_mask = ~(0xFFFFFFFF >> (x1 % 32));
 147:src/hebitmap_draw.h ****             int len = x2 - x1 / 32 * 32;
 1372              		.loc 2 147 22 view .LVU358
 1373 01d8 DB43     		mvns	r3, r3	@ clip_left_mask, tmp353
 1374              	@ src/hebitmap_draw.h:148:             int len = x2 - x1 / 32 * 32;
 148:src/hebitmap_draw.h ****             
 1375              		.loc 2 148 26 view .LVU359
 1376 01da 0F92     		str	r2, [sp, #60]	@ _63, %sfp
 1377 01dc 5A44     		add	r2, r2, fp	@ tmp403,
 1378 01de 01F01F0C 		and	ip, r1, #31	@ _211, _63,
 1379 01e2 A1F12008 		sub	r8, r1, #32	@ tmp402, _63,
 1380 01e6 22F01F02 		bic	r2, r2, #31	@ tmp404, tmp403,
 1381              	@ src/hebitmap_draw.h:147:             uint32_t clip_left_mask = ~(0xFFFFFFFF >> (x1 % 32));
 147:src/hebitmap_draw.h ****             int len = x2 - x1 / 32 * 32;
ARM GAS  /var/folders/fr/v3bs66k977527trx432fyrqc0000gn/T//ccTJugNk.s 			page 49


 1382              		.loc 2 147 22 view .LVU360
 1383 01ea 1093     		str	r3, [sp, #64]	@ clip_left_mask, %sfp
 1384              	.LBB259:
 1385              	.LBB230:
 1386              	@ src/hebitmap_draw.h:167:                     uint32_t clip_right_mask = 0xFFFFFFFF << (32 - len);
 167:src/hebitmap_draw.h ****                     data = (data & clip_right_mask) | (bswap32(*frame_ptr) & ~clip_right_mask);
 1387              		.loc 2 167 66 view .LVU361
 1388 01ec CCF12003 		rsb	r3, ip, #32	@ tmp408, _211,
 1389 01f0 A8EB0208 		sub	r8, r8, r2	@ _202, tmp402, tmp404
 1390              	@ src/hebitmap_draw.h:167:                     uint32_t clip_right_mask = 0xFFFFFFFF << (32 - len);
 167:src/hebitmap_draw.h ****                     data = (data & clip_right_mask) | (bswap32(*frame_ptr) & ~clip_right_mask);
 1391              		.loc 2 167 30 view .LVU362
 1392 01f4 0BFA03FB 		lsl	fp, fp, r3	@ clip_right_mask, tmp344, tmp408
 1393              	.LVL94:
 1394              	.L50:
 167:src/hebitmap_draw.h ****                     data = (data & clip_right_mask) | (bswap32(*frame_ptr) & ~clip_right_mask);
 1395              		.loc 2 167 30 view .LVU363
 1396              	.LBE230:
 1397              	.LBE259:
 140:src/hebitmap_draw.h ****             uint32_t *data_ptr = (uint32_t*)data_start;
 1398              		.loc 2 140 13 is_stmt 1 view .LVU364
 141:src/hebitmap_draw.h ****             uint32_t data_left = bswap32(*data_ptr) << shift;
 1399              		.loc 2 141 13 view .LVU365
 142:src/hebitmap_draw.h **** #ifdef HEBITMAP_MASK
 1400              		.loc 2 142 13 view .LVU366
 1401              	.LBB260:
 1402              	.LBI260:
  58:src/hebitmap_prv.h **** {
 1403              		.loc 3 58 24 view .LVU367
 1404              	.LBB261:
  61:src/hebitmap_prv.h ****     __asm("rev %0, %1" : "=r"(r) : "r"(n));
 1405              		.loc 3 61 5 view .LVU368
  62:src/hebitmap_prv.h ****     return r;
 1406              		.loc 3 62 5 view .LVU369
 1407              	.LBE261:
 1408              	.LBE260:
 1409              	@ src/hebitmap_draw.h:150:             while(len > 0)
 150:src/hebitmap_draw.h ****             {
 1410              		.loc 2 150 18 is_stmt 0 view .LVU370
 1411 01f8 0F9A     		ldr	r2, [sp, #60]	@ _63, %sfp
 1412              	.LBB264:
 1413              	.LBB262:
 1414              	@ src/hebitmap_prv.h:62:     __asm("rev %0, %1" : "=r"(r) : "r"(n));
  62:src/hebitmap_prv.h ****     return r;
 1415              		.loc 3 62 5 view .LVU371
 1416 01fa D9F80030 		ldr	r3, [r9]	@ MEM[(uint32_t *)data_start_225], MEM[(uint32_t *)data_start_225]
 1417              	.LBE262:
 1418              	.LBE264:
 1419              	@ src/hebitmap_draw.h:150:             while(len > 0)
 150:src/hebitmap_draw.h ****             {
 1420              		.loc 2 150 18 view .LVU372
 1421 01fe 002A     		cmp	r2, #0	@ _63,
 1422              	.LBB265:
 1423              	.LBB263:
 1424              	@ src/hebitmap_prv.h:62:     __asm("rev %0, %1" : "=r"(r) : "r"(n));
  62:src/hebitmap_prv.h ****     return r;
 1425              		.loc 3 62 5 view .LVU373
ARM GAS  /var/folders/fr/v3bs66k977527trx432fyrqc0000gn/T//ccTJugNk.s 			page 50


 1426              		.syntax unified
 1427              	@ 62 "src/hebitmap_prv.h" 1
 1428 0200 1BBA     		rev r3, r3	@ r, MEM[(uint32_t *)data_start_225]
 1429              	@ 0 "" 2
 1430              	.LVL95:
 1431              		.loc 3 63 5 is_stmt 1 view .LVU374
 1432              		.loc 3 63 5 is_stmt 0 view .LVU375
 1433              		.thumb
 1434              		.syntax unified
 1435              	.LBE263:
 1436              	.LBE265:
 1437              	@ src/hebitmap_draw.h:142:             uint32_t data_left = bswap32(*data_ptr) << shift;
 142:src/hebitmap_draw.h **** #ifdef HEBITMAP_MASK
 1438              		.loc 2 142 22 view .LVU376
 1439 0202 03FA07F3 		lsl	r3, r3, r7	@ data_left, r, shift
 1440              	.LVL96:
 147:src/hebitmap_draw.h ****             int len = x2 - x1 / 32 * 32;
 1441              		.loc 2 147 13 is_stmt 1 view .LVU377
 148:src/hebitmap_draw.h ****             
 1442              		.loc 2 148 13 view .LVU378
 150:src/hebitmap_draw.h ****             {
 1443              		.loc 2 150 13 view .LVU379
 150:src/hebitmap_draw.h ****             {
 1444              		.loc 2 150 18 view .LVU380
 1445 0206 31DD     		ble	.L43		@,
 150:src/hebitmap_draw.h ****             {
 1446              		.loc 2 150 18 is_stmt 0 view .LVU381
 1447 0208 1046     		mov	r0, r2	@ len, _63
 1448 020a 4D46     		mov	r5, r9	@ data_ptr, data_start
 1449              	@ src/hebitmap_draw.h:147:             uint32_t clip_left_mask = ~(0xFFFFFFFF >> (x1 % 32));
 147:src/hebitmap_draw.h ****             int len = x2 - x1 / 32 * 32;
 1450              		.loc 2 147 22 view .LVU382
 1451 020c 109A     		ldr	r2, [sp, #64]	@ clip_left_mask, %sfp
 1452              	.LVL97:
 1453              	@ src/hebitmap_draw.h:150:             while(len > 0)
 150:src/hebitmap_draw.h ****             {
 1454              		.loc 2 150 18 view .LVU383
 1455 020e 5446     		mov	r4, r10	@ frame_ptr, frame_start
 1456              	.LBB266:
 1457              	@ src/hebitmap_draw.h:152:                 uint32_t data_right = ((len + shift) > 32) ? (bswap32(*+
 152:src/hebitmap_draw.h ****                 uint32_t data = (data_left & shift_mask) | (data_right & ~shift_mask);
 1458              		.loc 2 152 91 view .LVU384
 1459 0210 C7F12006 		rsb	r6, r7, #32	@ tmp400, shift,
 1460 0214 1CE0     		b	.L48		@
 1461              	.LVL98:
 1462              	.L67:
 1463              	.LBB231:
 1464              	.LBB232:
 1465              	@ src/hebitmap_prv.h:62:     __asm("rev %0, %1" : "=r"(r) : "r"(n));
  62:src/hebitmap_prv.h ****     return r;
 1466              		.loc 3 62 5 discriminator 1 view .LVU385
 1467 0216 6968     		ldr	r1, [r5, #4]	@ MEM[(uint32_t *)data_ptr_228 + 4B], MEM[(uint32_t *)data_ptr_228 + 4B]
 1468              	.LBE232:
 1469              	.LBE231:
 1470              	@ src/hebitmap_draw.h:152:                 uint32_t data_right = ((len + shift) > 32) ? (bswap32(*+
 152:src/hebitmap_draw.h ****                 uint32_t data = (data_left & shift_mask) | (data_right & ~shift_mask);
 1471              		.loc 2 152 101 discriminator 1 view .LVU386
ARM GAS  /var/folders/fr/v3bs66k977527trx432fyrqc0000gn/T//ccTJugNk.s 			page 51


 1472 0218 0435     		adds	r5, r5, #4	@ data_ptr, data_ptr,
 1473              	.LVL99:
 1474              	.LBB235:
 1475              	.LBB233:
 1476              	@ src/hebitmap_prv.h:62:     __asm("rev %0, %1" : "=r"(r) : "r"(n));
  62:src/hebitmap_prv.h ****     return r;
 1477              		.loc 3 62 5 discriminator 1 view .LVU387
 1478              		.syntax unified
 1479              	@ 62 "src/hebitmap_prv.h" 1
 1480 021a 09BA     		rev r1, r1	@ r, MEM[(uint32_t *)data_ptr_228 + 4B]
 1481              	@ 0 "" 2
 1482              	.LVL100:
 1483              		.loc 3 63 5 is_stmt 1 discriminator 1 view .LVU388
 1484              		.loc 3 63 5 is_stmt 0 discriminator 1 view .LVU389
 1485              		.thumb
 1486              		.syntax unified
 1487              	.LBE233:
 1488              	.LBE235:
 1489              	@ src/hebitmap_draw.h:152:                 uint32_t data_right = ((len + shift) > 32) ? (bswap32(*+
 152:src/hebitmap_draw.h ****                 uint32_t data = (data_left & shift_mask) | (data_right & ~shift_mask);
 1490              		.loc 2 152 101 discriminator 1 view .LVU390
 1491 021c F140     		lsrs	r1, r1, r6	@ r, r, tmp400
 1492              	.LVL101:
 1493              	.L45:
 153:src/hebitmap_draw.h **** #ifdef HEBITMAP_MASK
 1494              		.loc 2 153 17 is_stmt 1 discriminator 4 view .LVU391
 161:src/hebitmap_draw.h ****                     clip_left_mask = 0x00000000;
 1495              		.loc 2 161 21 discriminator 4 view .LVU392
 1496              	.LBB236:
 1497              	.LBI236:
  58:src/hebitmap_prv.h **** {
 1498              		.loc 3 58 24 discriminator 4 view .LVU393
 1499              	.LBB237:
  61:src/hebitmap_prv.h ****     __asm("rev %0, %1" : "=r"(r) : "r"(n));
 1500              		.loc 3 61 5 discriminator 4 view .LVU394
  62:src/hebitmap_prv.h ****     return r;
 1501              		.loc 3 62 5 discriminator 4 view .LVU395
 1502              	.LBE237:
 1503              	.LBE236:
 1504              	@ src/hebitmap_draw.h:153:                 uint32_t data = (data_left & shift_mask) | (data_right &
 153:src/hebitmap_draw.h **** #ifdef HEBITMAP_MASK
 1505              		.loc 2 153 26 is_stmt 0 discriminator 4 view .LVU396
 1506 021e 4B40     		eors	r3, r3, r1	@, tmp367, data_left, r
 1507              	.LVL102:
 153:src/hebitmap_draw.h **** #ifdef HEBITMAP_MASK
 1508              		.loc 2 153 26 discriminator 4 view .LVU397
 1509 0220 03EA0E03 		and	r3, r3, lr	@ tmp368, tmp367, shift_mask
 1510 0224 5940     		eors	r1, r1, r3	@, data, r, tmp368
 1511              	.LVL103:
 159:src/hebitmap_draw.h ****                 {
 1512              		.loc 2 159 17 is_stmt 1 discriminator 4 view .LVU398
 1513              	@ src/hebitmap_draw.h:159:                 if(clip_left_mask != 0x00000000)
 159:src/hebitmap_draw.h ****                 {
 1514              		.loc 2 159 19 is_stmt 0 discriminator 4 view .LVU399
 1515 0226 22B1     		cbz	r2, .L46	@ clip_left_mask,
 1516              	.LBB239:
 1517              	.LBB238:
ARM GAS  /var/folders/fr/v3bs66k977527trx432fyrqc0000gn/T//ccTJugNk.s 			page 52


 1518              	@ src/hebitmap_prv.h:62:     __asm("rev %0, %1" : "=r"(r) : "r"(n));
  62:src/hebitmap_prv.h ****     return r;
 1519              		.loc 3 62 5 view .LVU400
 1520 0228 2368     		ldr	r3, [r4]	@ MEM[base: frame_ptr_227, offset: 0B], MEM[base: frame_ptr_227, offset: 0B]
 1521              		.syntax unified
 1522              	@ 62 "src/hebitmap_prv.h" 1
 1523 022a 1BBA     		rev r3, r3	@ r, MEM[base: frame_ptr_227, offset: 0B]
 1524              	@ 0 "" 2
 1525              	.LVL104:
 1526              		.loc 3 63 5 is_stmt 1 view .LVU401
 1527              		.loc 3 63 5 is_stmt 0 view .LVU402
 1528              		.thumb
 1529              		.syntax unified
 1530 022c 4B40     		eors	r3, r3, r1	@, tmp371, r, data
 1531 022e 1A40     		ands	r2, r2, r3	@, _190, clip_left_mask, tmp371
 1532              	.LVL105:
 1533              		.loc 3 63 5 view .LVU403
 1534              	.LBE238:
 1535              	.LBE239:
 1536              	@ src/hebitmap_draw.h:161:                     data = (bswap32(*frame_ptr) & clip_left_mask) | (dat
 161:src/hebitmap_draw.h ****                     clip_left_mask = 0x00000000;
 1537              		.loc 2 161 26 view .LVU404
 1538 0230 5140     		eors	r1, r1, r2	@, data, data, _190
 1539              	.LVL106:
 162:src/hebitmap_draw.h ****                 }
 1540              		.loc 2 162 21 is_stmt 1 view .LVU405
 1541              	.L46:
 165:src/hebitmap_draw.h ****                 {
 1542              		.loc 2 165 17 view .LVU406
 171:src/hebitmap_draw.h ****                 
 1543              		.loc 2 171 17 view .LVU407
 1544              	.LBB240:
 1545              	.LBI240:
  58:src/hebitmap_prv.h **** {
 1546              		.loc 3 58 24 view .LVU408
 1547              	.LBB241:
  61:src/hebitmap_prv.h ****     __asm("rev %0, %1" : "=r"(r) : "r"(n));
 1548              		.loc 3 61 5 view .LVU409
  62:src/hebitmap_prv.h ****     return r;
 1549              		.loc 3 62 5 view .LVU410
 1550              	.LBE241:
 1551              	.LBE240:
 1552              	@ src/hebitmap_draw.h:165:                 if(len < 32)
 165:src/hebitmap_draw.h ****                 {
 1553              		.loc 2 165 19 is_stmt 0 view .LVU411
 1554 0232 8445     		cmp	ip, r0	@ _211, len
 1555 0234 4FF00002 		mov	r2, #0	@ clip_left_mask,
 1556              	@ src/hebitmap_draw.h:179:                 len -= 32;
 179:src/hebitmap_draw.h ****             }
 1557              		.loc 2 179 21 view .LVU412
 1558 0238 A0F12000 		sub	r0, r0, #32	@ len, len,
 1559              	@ src/hebitmap_draw.h:165:                 if(len < 32)
 165:src/hebitmap_draw.h ****                 {
 1560              		.loc 2 165 19 view .LVU413
 1561 023c 0ED0     		beq	.L66		@,
 165:src/hebitmap_draw.h ****                 {
 1562              		.loc 2 165 19 view .LVU414
ARM GAS  /var/folders/fr/v3bs66k977527trx432fyrqc0000gn/T//ccTJugNk.s 			page 53


 1563              	.LBE266:
 1564              	@ src/hebitmap_draw.h:150:             while(len > 0)
 150:src/hebitmap_draw.h ****             {
 1565              		.loc 2 150 18 view .LVU415
 1566 023e 4045     		cmp	r0, r8	@ len, _202
 1567              	.LBB267:
 1568              	.LBB245:
 1569              	.LBB242:
 1570              	@ src/hebitmap_prv.h:62:     __asm("rev %0, %1" : "=r"(r) : "r"(n));
  62:src/hebitmap_prv.h ****     return r;
 1571              		.loc 3 62 5 view .LVU416
 1572              		.syntax unified
 1573              	@ 62 "src/hebitmap_prv.h" 1
 1574 0240 09BA     		rev r1, r1	@ r, data
 1575              	@ 0 "" 2
 1576              	.LVL107:
 1577              		.loc 3 63 5 is_stmt 1 view .LVU417
 1578              		.loc 3 63 5 is_stmt 0 view .LVU418
 1579              		.thumb
 1580              		.syntax unified
 1581              	.LBE242:
 1582              	.LBE245:
 1583              	@ src/hebitmap_draw.h:171:                 *frame_ptr++ = bswap32(data);
 171:src/hebitmap_draw.h ****                 
 1584              		.loc 2 171 30 view .LVU419
 1585 0242 44F8041B 		str	r1, [r4], #4	@ r, MEM[base: frame_ptr_147, offset: 4294967292B]
 1586              	.LVL108:
 174:src/hebitmap_draw.h **** #ifdef HEBITMAP_MASK
 1587              		.loc 2 174 17 is_stmt 1 view .LVU420
 1588              	.LBB246:
 1589              	.LBI246:
  58:src/hebitmap_prv.h **** {
 1590              		.loc 3 58 24 view .LVU421
 1591              	.LBB247:
  61:src/hebitmap_prv.h ****     __asm("rev %0, %1" : "=r"(r) : "r"(n));
 1592              		.loc 3 61 5 view .LVU422
  62:src/hebitmap_prv.h ****     return r;
 1593              		.loc 3 62 5 view .LVU423
 1594 0246 2B68     		ldr	r3, [r5]	@ *data_ptr_96, *data_ptr_96
 1595              		.syntax unified
 1596              	@ 62 "src/hebitmap_prv.h" 1
 1597 0248 1BBA     		rev r3, r3	@ r, *data_ptr_96
 1598              	@ 0 "" 2
 1599              	.LVL109:
 1600              		.loc 3 63 5 view .LVU424
 1601              		.loc 3 63 5 is_stmt 0 view .LVU425
 1602              		.thumb
 1603              		.syntax unified
 1604              	.LBE247:
 1605              	.LBE246:
 1606              	@ src/hebitmap_draw.h:174:                 data_left = bswap32(*data_ptr) << shift;
 174:src/hebitmap_draw.h **** #ifdef HEBITMAP_MASK
 1607              		.loc 2 174 27 view .LVU426
 1608 024a 03FA07F3 		lsl	r3, r3, r7	@ data_left, r, shift
 1609              	.LVL110:
 179:src/hebitmap_draw.h ****             }
 1610              		.loc 2 179 17 is_stmt 1 view .LVU427
ARM GAS  /var/folders/fr/v3bs66k977527trx432fyrqc0000gn/T//ccTJugNk.s 			page 54


 179:src/hebitmap_draw.h ****             }
 1611              		.loc 2 179 17 is_stmt 0 view .LVU428
 1612              	.LBE267:
 150:src/hebitmap_draw.h ****             {
 1613              		.loc 2 150 18 is_stmt 1 view .LVU429
 1614 024e 0DD0     		beq	.L43		@,
 1615              	.LVL111:
 1616              	.L48:
 1617              	.LBB268:
 152:src/hebitmap_draw.h ****                 uint32_t data = (data_left & shift_mask) | (data_right & ~shift_mask);
 1618              		.loc 2 152 17 view .LVU430
 1619              	.LBB249:
 1620              	.LBI231:
  58:src/hebitmap_prv.h **** {
 1621              		.loc 3 58 24 view .LVU431
 1622              	.LBB234:
  61:src/hebitmap_prv.h ****     __asm("rev %0, %1" : "=r"(r) : "r"(n));
 1623              		.loc 3 61 5 view .LVU432
  62:src/hebitmap_prv.h ****     return r;
 1624              		.loc 3 62 5 view .LVU433
  62:src/hebitmap_prv.h ****     return r;
 1625              		.loc 3 62 5 is_stmt 0 view .LVU434
 1626              	.LBE234:
 1627              	.LBE249:
 1628              	.LBB250:
 1629              	.LBI250:
  58:src/hebitmap_prv.h **** {
 1630              		.loc 3 58 24 is_stmt 1 view .LVU435
 1631              	.LBB251:
  61:src/hebitmap_prv.h ****     __asm("rev %0, %1" : "=r"(r) : "r"(n));
 1632              		.loc 3 61 5 view .LVU436
  62:src/hebitmap_prv.h ****     return r;
 1633              		.loc 3 62 5 view .LVU437
 1634              	.LBE251:
 1635              	.LBE250:
 1636              	@ src/hebitmap_draw.h:152:                 uint32_t data_right = ((len + shift) > 32) ? (bswap32(*+
 152:src/hebitmap_draw.h ****                 uint32_t data = (data_left & shift_mask) | (data_right & ~shift_mask);
 1637              		.loc 2 152 101 is_stmt 0 view .LVU438
 1638 0250 C119     		adds	r1, r0, r7	@ tmp361, len, shift
 1639 0252 2029     		cmp	r1, #32	@ tmp361,
 1640 0254 DFDC     		bgt	.L67		@,
 1641              	.LBB253:
 1642              	.LBB252:
 1643              	@ src/hebitmap_prv.h:62:     __asm("rev %0, %1" : "=r"(r) : "r"(n));
  62:src/hebitmap_prv.h ****     return r;
 1644              		.loc 3 62 5 discriminator 2 view .LVU439
 1645 0256 2168     		ldr	r1, [r4]	@ MEM[base: frame_ptr_227, offset: 0B], MEM[base: frame_ptr_227, offset: 0B]
 1646              		.syntax unified
 1647              	@ 62 "src/hebitmap_prv.h" 1
 1648 0258 09BA     		rev r1, r1	@ r, MEM[base: frame_ptr_227, offset: 0B]
 1649              	@ 0 "" 2
 1650              	.LVL112:
 1651              		.loc 3 63 5 is_stmt 1 discriminator 2 view .LVU440
 1652              		.loc 3 63 5 is_stmt 0 discriminator 2 view .LVU441
 1653              		.thumb
 1654              		.syntax unified
 1655 025a E0E7     		b	.L45		@
ARM GAS  /var/folders/fr/v3bs66k977527trx432fyrqc0000gn/T//ccTJugNk.s 			page 55


 1656              	.LVL113:
 1657              	.L66:
 1658              		.loc 3 63 5 discriminator 2 view .LVU442
 1659              	.LBE252:
 1660              	.LBE253:
 1661              	.LBB254:
 167:src/hebitmap_draw.h ****                     data = (data & clip_right_mask) | (bswap32(*frame_ptr) & ~clip_right_mask);
 1662              		.loc 2 167 21 is_stmt 1 view .LVU443
 168:src/hebitmap_draw.h ****                 }
 1663              		.loc 2 168 21 view .LVU444
 1664              	.LBB228:
 1665              	.LBI228:
  58:src/hebitmap_prv.h **** {
 1666              		.loc 3 58 24 view .LVU445
 1667              	.LBB229:
  61:src/hebitmap_prv.h ****     __asm("rev %0, %1" : "=r"(r) : "r"(n));
 1668              		.loc 3 61 5 view .LVU446
  62:src/hebitmap_prv.h ****     return r;
 1669              		.loc 3 62 5 view .LVU447
 1670 025c 2368     		ldr	r3, [r4]	@ *frame_ptr_227, *frame_ptr_227
 1671              		.syntax unified
 1672              	@ 62 "src/hebitmap_prv.h" 1
 1673 025e 1BBA     		rev r3, r3	@ r, *frame_ptr_227
 1674              	@ 0 "" 2
 1675              	.LVL114:
 1676              		.loc 3 63 5 view .LVU448
 1677              		.loc 3 63 5 is_stmt 0 view .LVU449
 1678              		.thumb
 1679              		.syntax unified
 1680 0260 5940     		eors	r1, r1, r3	@, tmp377, data, r
 1681              	.LVL115:
 1682              		.loc 3 63 5 view .LVU450
 1683 0262 0BEA0101 		and	r1, fp, r1	@ _191, clip_right_mask, tmp377
 1684              	.LVL116:
 1685              		.loc 3 63 5 view .LVU451
 1686              	.LBE229:
 1687              	.LBE228:
 1688              	.LBE254:
 171:src/hebitmap_draw.h ****                 
 1689              		.loc 2 171 17 is_stmt 1 view .LVU452
 1690              	.LBB255:
  58:src/hebitmap_prv.h **** {
 1691              		.loc 3 58 24 view .LVU453
 1692              	.LBB243:
  61:src/hebitmap_prv.h ****     __asm("rev %0, %1" : "=r"(r) : "r"(n));
 1693              		.loc 3 61 5 view .LVU454
  62:src/hebitmap_prv.h ****     return r;
 1694              		.loc 3 62 5 view .LVU455
 1695              	.LBE243:
 1696              	.LBE255:
 1697              	.LBB256:
 1698              	@ src/hebitmap_draw.h:168:                     data = (data & clip_right_mask) | (bswap32(*frame_pt
 168:src/hebitmap_draw.h ****                 }
 1699              		.loc 2 168 26 is_stmt 0 view .LVU456
 1700 0266 4B40     		eors	r3, r3, r1	@, data, r, _191
 1701              	.LVL117:
 168:src/hebitmap_draw.h ****                 }
ARM GAS  /var/folders/fr/v3bs66k977527trx432fyrqc0000gn/T//ccTJugNk.s 			page 56


 1702              		.loc 2 168 26 view .LVU457
 1703              	.LBE256:
 1704              	.LBB257:
 1705              	.LBB244:
 1706              	@ src/hebitmap_prv.h:62:     __asm("rev %0, %1" : "=r"(r) : "r"(n));
  62:src/hebitmap_prv.h ****     return r;
 1707              		.loc 3 62 5 view .LVU458
 1708              		.syntax unified
 1709              	@ 62 "src/hebitmap_prv.h" 1
 1710 0268 1BBA     		rev r3, r3	@ r, data
 1711              	@ 0 "" 2
 1712              	.LVL118:
 1713              		.loc 3 63 5 is_stmt 1 view .LVU459
 1714              		.loc 3 63 5 is_stmt 0 view .LVU460
 1715              		.thumb
 1716              		.syntax unified
 1717              	.LBE244:
 1718              	.LBE257:
 1719              	@ src/hebitmap_draw.h:171:                 *frame_ptr++ = bswap32(data);
 171:src/hebitmap_draw.h ****                 
 1720              		.loc 2 171 30 view .LVU461
 1721 026a 2360     		str	r3, [r4]	@ r, *frame_ptr_227
 174:src/hebitmap_draw.h **** #ifdef HEBITMAP_MASK
 1722              		.loc 2 174 17 is_stmt 1 view .LVU462
 1723              	.LBB258:
  58:src/hebitmap_prv.h **** {
 1724              		.loc 3 58 24 view .LVU463
 1725              	.LBB248:
  61:src/hebitmap_prv.h ****     __asm("rev %0, %1" : "=r"(r) : "r"(n));
 1726              		.loc 3 61 5 view .LVU464
  62:src/hebitmap_prv.h ****     return r;
 1727              		.loc 3 62 5 view .LVU465
 1728              		.loc 3 63 5 view .LVU466
 1729              		.loc 3 63 5 is_stmt 0 view .LVU467
 1730              	.LBE248:
 1731              	.LBE258:
 179:src/hebitmap_draw.h ****             }
 1732              		.loc 2 179 17 is_stmt 1 view .LVU468
 179:src/hebitmap_draw.h ****             }
 1733              		.loc 2 179 17 is_stmt 0 view .LVU469
 1734              	.LBE268:
 150:src/hebitmap_draw.h ****             {
 1735              		.loc 2 150 18 is_stmt 1 view .LVU470
 1736              	.LVL119:
 1737              	.L43:
 182:src/hebitmap_draw.h ****             data_start += prv->rowbytes;
 1738              		.loc 2 182 13 discriminator 2 view .LVU471
 1739              	.LBE269:
 1740              	@ src/hebitmap_draw.h:138:         for(int row = y1; row < y2; row++)
 138:src/hebitmap_draw.h ****         {
 1741              		.loc 2 138 40 is_stmt 0 discriminator 2 view .LVU472
 1742 026c 0B9B     		ldr	r3, [sp, #44]	@ row, %sfp
 1743              	.LBB270:
 1744              	@ src/hebitmap_draw.h:182:             frame_start += LCD_ROWSIZE;
 182:src/hebitmap_draw.h ****             data_start += prv->rowbytes;
 1745              		.loc 2 182 25 discriminator 2 view .LVU473
 1746 026e 0AF1340A 		add	r10, r10, #52	@ frame_start, frame_start,
ARM GAS  /var/folders/fr/v3bs66k977527trx432fyrqc0000gn/T//ccTJugNk.s 			page 57


 1747              	.LVL120:
 183:src/hebitmap_draw.h **** #ifdef HEBITMAP_MASK
 1748              		.loc 2 183 13 is_stmt 1 discriminator 2 view .LVU474
 1749              	@ src/hebitmap_draw.h:183:             data_start += prv->rowbytes;
 183:src/hebitmap_draw.h **** #ifdef HEBITMAP_MASK
 1750              		.loc 2 183 24 is_stmt 0 discriminator 2 view .LVU475
 1751 0272 0E9A     		ldr	r2, [sp, #56]	@ _50, %sfp
 1752              	.LBE270:
 1753              	@ src/hebitmap_draw.h:138:         for(int row = y1; row < y2; row++)
 138:src/hebitmap_draw.h ****         {
 1754              		.loc 2 138 40 discriminator 2 view .LVU476
 1755 0274 0133     		adds	r3, r3, #1	@ row, row,
 1756              	.LBB271:
 1757              	@ src/hebitmap_draw.h:183:             data_start += prv->rowbytes;
 183:src/hebitmap_draw.h **** #ifdef HEBITMAP_MASK
 1758              		.loc 2 183 24 discriminator 2 view .LVU477
 1759 0276 9144     		add	r9, r9, r2	@ data_start, _50
 1760              	.LVL121:
 183:src/hebitmap_draw.h **** #ifdef HEBITMAP_MASK
 1761              		.loc 2 183 24 discriminator 2 view .LVU478
 1762              	.LBE271:
 138:src/hebitmap_draw.h ****         {
 1763              		.loc 2 138 37 is_stmt 1 discriminator 2 view .LVU479
 138:src/hebitmap_draw.h ****         {
 1764              		.loc 2 138 27 discriminator 2 view .LVU480
 1765              	@ src/hebitmap_draw.h:138:         for(int row = y1; row < y2; row++)
 138:src/hebitmap_draw.h ****         {
 1766              		.loc 2 138 9 is_stmt 0 discriminator 2 view .LVU481
 1767 0278 0C9A     		ldr	r2, [sp, #48]	@ prephitmp_42, %sfp
 1768              	@ src/hebitmap_draw.h:138:         for(int row = y1; row < y2; row++)
 138:src/hebitmap_draw.h ****         {
 1769              		.loc 2 138 40 discriminator 2 view .LVU482
 1770 027a 0B93     		str	r3, [sp, #44]	@ row, %sfp
 1771              	@ src/hebitmap_draw.h:138:         for(int row = y1; row < y2; row++)
 138:src/hebitmap_draw.h ****         {
 1772              		.loc 2 138 9 discriminator 2 view .LVU483
 1773 027c 9342     		cmp	r3, r2	@ row, prephitmp_42
 1774 027e BBD1     		bne	.L50		@,
 1775 0280 76E7     		b	.L34		@
 1776              	.L69:
 1777 0282 00BF     		.align	2
 1778              	.L68:
 1779 0284 00000000 		.word	clipRect
 1780              	.LBE272:
 1781              	.LBE223:
 1782              		.cfi_endproc
 1783              	.LFE15:
 1784              		.size	HEBitmapDrawOpaque, .-HEBitmapDrawOpaque
 1785              		.section	.text.HEBitmapDrawMask,"ax",%progbits
 1786              		.align	1
 1787              		.p2align 4,,15
 1788              		.global	HEBitmapDrawMask
 1789              		.syntax unified
 1790              		.thumb
 1791              		.thumb_func
 1792              		.fpu fpv5-sp-d16
 1793              		.type	HEBitmapDrawMask, %function
ARM GAS  /var/folders/fr/v3bs66k977527trx432fyrqc0000gn/T//ccTJugNk.s 			page 58


 1794              	HEBitmapDrawMask:
 1795              	.LVL122:
 1796              	.LFB16:
  17:src/hebitmap_draw.h ****     _HEBitmap *prv = bitmap->prv;
 1797              		.loc 2 17 1 is_stmt 1 view -0
 1798              		.cfi_startproc
 1799              		@ args = 0, pretend = 0, frame = 72
 1800              		@ frame_needed = 0, uses_anonymous_args = 0
  18:src/hebitmap_draw.h ****     
 1801              		.loc 2 18 5 view .LVU485
 1802              	@ src/hebitmap_draw.h:17: {
  17:src/hebitmap_draw.h ****     _HEBitmap *prv = bitmap->prv;
 1803              		.loc 2 17 1 is_stmt 0 view .LVU486
 1804 0000 2DE9F04F 		push	{r4, r5, r6, r7, r8, r9, r10, fp, lr}	@
 1805              	.LCFI11:
 1806              		.cfi_def_cfa_offset 36
 1807              		.cfi_offset 4, -36
 1808              		.cfi_offset 5, -32
 1809              		.cfi_offset 6, -28
 1810              		.cfi_offset 7, -24
 1811              		.cfi_offset 8, -20
 1812              		.cfi_offset 9, -16
 1813              		.cfi_offset 10, -12
 1814              		.cfi_offset 11, -8
 1815              		.cfi_offset 14, -4
 1816              	@ src/hebitmap_draw.h:18:     _HEBitmap *prv = bitmap->prv;
  18:src/hebitmap_draw.h ****     
 1817              		.loc 2 18 16 view .LVU487
 1818 0004 0D68     		ldr	r5, [r1]	@ prv, bitmap_130(D)->prv
 1819              	.LVL123:
  20:src/hebitmap_draw.h ****     y += prv->by;
 1820              		.loc 2 20 5 is_stmt 1 view .LVU488
 1821              	@ src/hebitmap_draw.h:17: {
  17:src/hebitmap_draw.h ****     _HEBitmap *prv = bitmap->prv;
 1822              		.loc 2 17 1 is_stmt 0 view .LVU489
 1823 0006 0C46     		mov	r4, r1	@ bitmap, tmp472
 1824              	@ src/hebitmap_draw.h:23:     if((x + prv->bw) <= clipRect.x || x >= (clipRect.x + clipRect.width) 
  23:src/hebitmap_draw.h ****     {
 1825              		.loc 2 23 33 view .LVU490
 1826 0008 DFF850C3 		ldr	ip, .L108	@ tmp309,
 1827              	@ src/hebitmap_draw.h:17: {
  17:src/hebitmap_draw.h ****     _HEBitmap *prv = bitmap->prv;
 1828              		.loc 2 17 1 view .LVU491
 1829 000c 9DB0     		sub	sp, sp, #116	@,,
 1830              	.LCFI12:
 1831              		.cfi_def_cfa_offset 152
 1832              	@ src/hebitmap_draw.h:20:     x += prv->bx;
  20:src/hebitmap_draw.h ****     y += prv->by;
 1833              		.loc 2 20 7 view .LVU492
 1834 000e EE68     		ldr	r6, [r5, #12]	@ prv_131->bx, prv_131->bx
 1835              	@ src/hebitmap_draw.h:23:     if((x + prv->bw) <= clipRect.x || x >= (clipRect.x + clipRect.width) 
  23:src/hebitmap_draw.h ****     {
 1836              		.loc 2 23 11 view .LVU493
 1837 0010 6969     		ldr	r1, [r5, #20]	@ prv_131->bw, prv_131->bw
 1838              	.LVL124:
 1839              	@ src/hebitmap_draw.h:20:     x += prv->bx;
  20:src/hebitmap_draw.h ****     y += prv->by;
ARM GAS  /var/folders/fr/v3bs66k977527trx432fyrqc0000gn/T//ccTJugNk.s 			page 59


 1840              		.loc 2 20 7 view .LVU494
 1841 0012 1644     		add	r6, r6, r2	@ x, tmp473
 1842              	.LVL125:
  21:src/hebitmap_draw.h ****     
 1843              		.loc 2 21 5 is_stmt 1 view .LVU495
  23:src/hebitmap_draw.h ****     {
 1844              		.loc 2 23 5 view .LVU496
 1845              	@ src/hebitmap_draw.h:23:     if((x + prv->bw) <= clipRect.x || x >= (clipRect.x + clipRect.width) 
  23:src/hebitmap_draw.h ****     {
 1846              		.loc 2 23 33 is_stmt 0 view .LVU497
 1847 0014 DCF80070 		ldr	r7, [ip]	@ _5, clipRect.x
 1848              	@ src/hebitmap_draw.h:17: {
  17:src/hebitmap_draw.h ****     _HEBitmap *prv = bitmap->prv;
 1849              		.loc 2 17 1 view .LVU498
 1850 0018 1190     		str	r0, [sp, #68]	@ playdate, %sfp
 1851              	@ src/hebitmap_draw.h:23:     if((x + prv->bw) <= clipRect.x || x >= (clipRect.x + clipRect.width) 
  23:src/hebitmap_draw.h ****     {
 1852              		.loc 2 23 11 view .LVU499
 1853 001a 3144     		add	r1, r1, r6	@ tmp310, x
 1854              	@ src/hebitmap_draw.h:23:     if((x + prv->bw) <= clipRect.x || x >= (clipRect.x + clipRect.width) 
  23:src/hebitmap_draw.h ****     {
 1855              		.loc 2 23 7 view .LVU500
 1856 001c B942     		cmp	r1, r7	@ tmp310, _5
 1857 001e 11DD     		ble	.L70		@,
 1858              	@ src/hebitmap_draw.h:23:     if((x + prv->bw) <= clipRect.x || x >= (clipRect.x + clipRect.width) 
  23:src/hebitmap_draw.h ****     {
 1859              		.loc 2 23 56 discriminator 1 view .LVU501
 1860 0020 DCF80820 		ldr	r2, [ip, #8]	@ clipRect.width, clipRect.width
 1861 0024 1744     		add	r7, r7, r2	@ tmp313, clipRect.width
 1862              	@ src/hebitmap_draw.h:23:     if((x + prv->bw) <= clipRect.x || x >= (clipRect.x + clipRect.width) 
  23:src/hebitmap_draw.h ****     {
 1863              		.loc 2 23 36 discriminator 1 view .LVU502
 1864 0026 B742     		cmp	r7, r6	@ tmp313, x
 1865 0028 0CDD     		ble	.L70		@,
 1866              	@ src/hebitmap_draw.h:21:     y += prv->by;
  21:src/hebitmap_draw.h ****     
 1867              		.loc 2 21 7 discriminator 2 view .LVU503
 1868 002a 2F69     		ldr	r7, [r5, #16]	@ prv_131->by, prv_131->by
 1869              	@ src/hebitmap_draw.h:23:     if((x + prv->bw) <= clipRect.x || x >= (clipRect.x + clipRect.width) 
  23:src/hebitmap_draw.h ****     {
 1870              		.loc 2 23 80 discriminator 2 view .LVU504
 1871 002c AA69     		ldr	r2, [r5, #24]	@ prv_131->bh, prv_131->bh
 1872              	@ src/hebitmap_draw.h:21:     y += prv->by;
  21:src/hebitmap_draw.h ****     
 1873              		.loc 2 21 7 discriminator 2 view .LVU505
 1874 002e 1F44     		add	r7, r7, r3	@ y, y
 1875              	@ src/hebitmap_draw.h:23:     if((x + prv->bw) <= clipRect.x || x >= (clipRect.x + clipRect.width) 
  23:src/hebitmap_draw.h ****     {
 1876              		.loc 2 23 102 discriminator 2 view .LVU506
 1877 0030 DCF80430 		ldr	r3, [ip, #4]	@ _10, clipRect.y
 1878              	.LVL126:
 1879              	@ src/hebitmap_draw.h:23:     if((x + prv->bw) <= clipRect.x || x >= (clipRect.x + clipRect.width) 
  23:src/hebitmap_draw.h ****     {
 1880              		.loc 2 23 80 discriminator 2 view .LVU507
 1881 0034 3A44     		add	r2, r2, r7	@ tmp317, y
 1882              	@ src/hebitmap_draw.h:23:     if((x + prv->bw) <= clipRect.x || x >= (clipRect.x + clipRect.width) 
  23:src/hebitmap_draw.h ****     {
ARM GAS  /var/folders/fr/v3bs66k977527trx432fyrqc0000gn/T//ccTJugNk.s 			page 60


 1883              		.loc 2 23 74 discriminator 2 view .LVU508
 1884 0036 9A42     		cmp	r2, r3	@ tmp317, _10
 1885 0038 04DD     		ble	.L70		@,
 1886              	@ src/hebitmap_draw.h:23:     if((x + prv->bw) <= clipRect.x || x >= (clipRect.x + clipRect.width) 
  23:src/hebitmap_draw.h ****     {
 1887              		.loc 2 23 125 discriminator 3 view .LVU509
 1888 003a DCF80C20 		ldr	r2, [ip, #12]	@ clipRect.height, clipRect.height
 1889 003e 1344     		add	r3, r3, r2	@ tmp320, clipRect.height
 1890              	@ src/hebitmap_draw.h:23:     if((x + prv->bw) <= clipRect.x || x >= (clipRect.x + clipRect.width) 
  23:src/hebitmap_draw.h ****     {
 1891              		.loc 2 23 105 discriminator 3 view .LVU510
 1892 0040 BB42     		cmp	r3, r7	@ tmp320, y
 1893 0042 02DC     		bgt	.L105		@,
 1894              	.L70:
 1895              	@ src/hebitmap_draw.h:191: }
 1896              		.loc 2 191 1 view .LVU511
 1897 0044 1DB0     		add	sp, sp, #116	@,,
 1898              	.LCFI13:
 1899              		.cfi_remember_state
 1900              		.cfi_def_cfa_offset 36
 1901              		@ sp needed	@
 1902 0046 BDE8F08F 		pop	{r4, r5, r6, r7, r8, r9, r10, fp, pc}	@
 1903              	.LVL127:
 1904              	.L105:
 1905              	.LCFI14:
 1906              		.cfi_restore_state
  31:src/hebitmap_draw.h ****     clip_bounds(bitmap, x, y, &x1, &y1, &x2, &y2, &offset_left, &offset_top, clipRect);
 1907              		.loc 2 31 5 is_stmt 1 view .LVU512
  32:src/hebitmap_draw.h ****     
 1908              		.loc 2 32 5 view .LVU513
 1909 004a 8246     		mov	r10, r0	@ playdate, tmp471
 1910 004c 0DF1140E 		add	lr, sp, #20	@ tmp324,,
 1911 0050 0DF16C09 		add	r9, sp, #108	@ tmp326,,
 1912 0054 0DF16808 		add	r8, sp, #104	@ tmp327,,
 1913 0058 9CE80F00 		ldm	ip, {r0, r1, r2, r3}	@ tmp309,,,,
 1914              	.LVL128:
  32:src/hebitmap_draw.h ****     
 1915              		.loc 2 32 5 is_stmt 0 view .LVU514
 1916 005c 0DF15C0C 		add	ip, sp, #92	@ tmp330,,
 1917 0060 8EE80F00 		stm	lr, {r0, r1, r2, r3}	@ tmp324,,,,
 1918              	.LVL129:
  32:src/hebitmap_draw.h ****     
 1919              		.loc 2 32 5 view .LVU515
 1920 0064 0DF1600E 		add	lr, sp, #96	@ tmp329,,
 1921 0068 19A9     		add	r1, sp, #100	@ tmp328,,
 1922 006a 3A46     		mov	r2, r7	@, y
 1923 006c 2046     		mov	r0, r4	@, bitmap
 1924 006e 16AB     		add	r3, sp, #88	@,,
 1925 0070 0291     		str	r1, [sp, #8]	@ tmp328,
 1926 0072 3146     		mov	r1, r6	@, x
 1927 0074 CDE900CE 		strd	ip, lr, [sp]	@ tmp330, tmp329,
 1928 0078 CDE90389 		strd	r8, r9, [sp, #12]	@ tmp327, tmp326,,
 1929 007c FFF7FEFF 		bl	clip_bounds		@
 1930              	.LVL130:
  34:src/hebitmap_draw.h ****     
 1931              		.loc 2 34 5 is_stmt 1 view .LVU516
 1932              	@ src/hebitmap_draw.h:34:     uint8_t *frame_start = playdate->graphics->getFrame() + y1 * LCD_ROWS
ARM GAS  /var/folders/fr/v3bs66k977527trx432fyrqc0000gn/T//ccTJugNk.s 			page 61


  34:src/hebitmap_draw.h ****     
 1933              		.loc 2 34 46 is_stmt 0 view .LVU517
 1934 0080 DAF80830 		ldr	r3, [r10, #8]	@ playdate_137(D)->graphics, playdate_137(D)->graphics
 1935              	@ src/hebitmap_draw.h:34:     uint8_t *frame_start = playdate->graphics->getFrame() + y1 * LCD_ROWS
  34:src/hebitmap_draw.h ****     
 1936              		.loc 2 34 28 view .LVU518
 1937 0084 D3F8A430 		ldr	r3, [r3, #164]	@ _13->getFrame, _13->getFrame
 1938 0088 9847     		blx	r3		@ _13->getFrame
 1939              	.LVL131:
 1940              	@ src/hebitmap_draw.h:34:     uint8_t *frame_start = playdate->graphics->getFrame() + y1 * LCD_ROWS
  34:src/hebitmap_draw.h ****     
 1941              		.loc 2 34 78 view .LVU519
 1942 008a DDE91642 		ldrd	r4, r2, [sp, #88]	@ x1.30_18, y1.29_16,,
 1943              	.LVL132:
  34:src/hebitmap_draw.h ****     
 1944              		.loc 2 34 78 view .LVU520
 1945 008e 02EB4203 		add	r3, r2, r2, lsl #1	@ tmp335, y1.29_16, y1.29_16,
 1946              	@ src/hebitmap_draw.h:36:     if((int)(x1 / 32 * 32) <= x)
  36:src/hebitmap_draw.h ****     {
 1947              		.loc 2 36 8 view .LVU521
 1948 0092 24F01F0C 		bic	ip, r4, #31	@ _50, x1.30_18,
 1949              	@ src/hebitmap_draw.h:34:     uint8_t *frame_start = playdate->graphics->getFrame() + y1 * LCD_ROWS
  34:src/hebitmap_draw.h ****     
 1950              		.loc 2 34 78 view .LVU522
 1951 0096 1592     		str	r2, [sp, #84]	@ y1.29_16, %sfp
 1952 0098 02EB8303 		add	r3, r2, r3, lsl #2	@ tmp337, y1.29_16, tmp335,
 1953              	@ src/hebitmap_draw.h:36:     if((int)(x1 / 32 * 32) <= x)
  36:src/hebitmap_draw.h ****     {
 1954              		.loc 2 36 7 view .LVU523
 1955 009c B445     		cmp	ip, r6	@ _50, x
 1956              	@ src/hebitmap_draw.h:34:     uint8_t *frame_start = playdate->graphics->getFrame() + y1 * LCD_ROWS
  34:src/hebitmap_draw.h ****     
 1957              		.loc 2 34 78 view .LVU524
 1958 009e 03EB5413 		add	r3, r3, r4, lsr #5	@ tmp339, tmp337, x1.30_18,
 1959              	@ src/hebitmap_draw.h:34:     uint8_t *frame_start = playdate->graphics->getFrame() + y1 * LCD_ROWS
  34:src/hebitmap_draw.h ****     
 1960              		.loc 2 34 14 view .LVU525
 1961 00a2 00EB8303 		add	r3, r0, r3, lsl #2	@ frame_start, tmp475, tmp339,
 1962 00a6 0B93     		str	r3, [sp, #44]	@ frame_start, %sfp
 1963              	.LVL133:
  36:src/hebitmap_draw.h ****     {
 1964              		.loc 2 36 5 is_stmt 1 view .LVU526
 1965              	@ src/hebitmap_draw.h:36:     if((int)(x1 / 32 * 32) <= x)
  36:src/hebitmap_draw.h ****     {
 1966              		.loc 2 36 7 is_stmt 0 view .LVU527
 1967 00a8 00F39E80 		bgt	.L74		@,
 1968              	.LVL134:
 1969              	.LBB273:
  47:src/hebitmap_draw.h ****         uint32_t og_shift_mask = ~(0xFFFFFFFF >> shift);
 1970              		.loc 2 47 9 is_stmt 1 view .LVU528
 1971              	@ src/hebitmap_draw.h:50:         int data_offset = offset_top * prv->rowbytes;
  50:src/hebitmap_draw.h ****         
 1972              		.loc 2 50 43 is_stmt 0 view .LVU529
 1973 00ac A868     		ldr	r0, [r5, #8]	@ _26, prv_131->rowbytes
 1974              	@ src/hebitmap_draw.h:47:         int shift = (unsigned int)x % 32;
  47:src/hebitmap_draw.h ****         uint32_t og_shift_mask = ~(0xFFFFFFFF >> shift);
 1975              		.loc 2 47 13 view .LVU530
ARM GAS  /var/folders/fr/v3bs66k977527trx432fyrqc0000gn/T//ccTJugNk.s 			page 62


 1976 00ae 06F01F06 		and	r6, r6, #31	@ shift, x,
 1977              	.LVL135:
  48:src/hebitmap_draw.h ****         
 1978              		.loc 2 48 9 is_stmt 1 view .LVU531
 1979              	@ src/hebitmap_draw.h:50:         int data_offset = offset_top * prv->rowbytes;
  50:src/hebitmap_draw.h ****         
 1980              		.loc 2 50 38 is_stmt 0 view .LVU532
 1981 00b2 1B9A     		ldr	r2, [sp, #108]	@ offset_top, offset_top
 1982              	@ src/hebitmap_draw.h:48:         uint32_t og_shift_mask = ~(0xFFFFFFFF >> shift);
  48:src/hebitmap_draw.h ****         
 1983              		.loc 2 48 47 view .LVU533
 1984 00b4 4FF0FF33 		mov	r3, #-1	@ tmp343,
 1985              	.LVL136:
 1986              	@ src/hebitmap_draw.h:52:         uint8_t *data_start = prv->data + data_offset;
  52:src/hebitmap_draw.h **** #ifdef HEBITMAP_MASK
 1987              		.loc 2 52 18 view .LVU534
 1988 00b8 2F68     		ldr	r7, [r5]	@ prv_131->data, prv_131->data
 1989              	@ src/hebitmap_draw.h:50:         int data_offset = offset_top * prv->rowbytes;
  50:src/hebitmap_draw.h ****         
 1990              		.loc 2 50 38 view .LVU535
 1991 00ba 02FB00F2 		mul	r2, r2, r0	@ _28, offset_top, _26
 1992              	@ src/hebitmap_draw.h:48:         uint32_t og_shift_mask = ~(0xFFFFFFFF >> shift);
  48:src/hebitmap_draw.h ****         
 1993              		.loc 2 48 47 view .LVU536
 1994 00be 23FA06F9 		lsr	r9, r3, r6	@ tmp342, tmp343, shift
 1995              	@ src/hebitmap_draw.h:50:         int data_offset = offset_top * prv->rowbytes;
  50:src/hebitmap_draw.h ****         
 1996              		.loc 2 50 43 view .LVU537
 1997 00c2 1290     		str	r0, [sp, #72]	@ _26, %sfp
 1998              	@ src/hebitmap_draw.h:54:         uint8_t *mask_start = prv->mask + data_offset;
  54:src/hebitmap_draw.h **** #endif
 1999              		.loc 2 54 18 view .LVU538
 2000 00c4 6868     		ldr	r0, [r5, #4]	@ prv_131->mask, prv_131->mask
 2001              	@ src/hebitmap_draw.h:52:         uint8_t *data_start = prv->data + data_offset;
  52:src/hebitmap_draw.h **** #ifdef HEBITMAP_MASK
 2002              		.loc 2 52 18 view .LVU539
 2003 00c6 B918     		adds	r1, r7, r2	@ data_start, prv_131->data, _28
 2004              	.LBB274:
 2005              	@ src/hebitmap_draw.h:56:         for(int row = y1; row < y2; row++)
  56:src/hebitmap_draw.h ****         {
 2006              		.loc 2 56 31 view .LVU540
 2007 00c8 199D     		ldr	r5, [sp, #100]	@ y2.44_110, y2
 2008              	.LVL137:
  56:src/hebitmap_draw.h ****         {
 2009              		.loc 2 56 31 view .LVU541
 2010              	.LBE274:
 2011              	@ src/hebitmap_draw.h:48:         uint32_t og_shift_mask = ~(0xFFFFFFFF >> shift);
  48:src/hebitmap_draw.h ****         
 2012              		.loc 2 48 18 view .LVU542
 2013 00ca 6FEA0909 		mvn	r9, r9	@ og_shift_mask, tmp342
 2014              	.LVL138:
  50:src/hebitmap_draw.h ****         
 2015              		.loc 2 50 9 is_stmt 1 view .LVU543
  52:src/hebitmap_draw.h **** #ifdef HEBITMAP_MASK
 2016              		.loc 2 52 9 view .LVU544
 2017              	@ src/hebitmap_draw.h:52:         uint8_t *data_start = prv->data + data_offset;
  52:src/hebitmap_draw.h **** #ifdef HEBITMAP_MASK
ARM GAS  /var/folders/fr/v3bs66k977527trx432fyrqc0000gn/T//ccTJugNk.s 			page 63


 2018              		.loc 2 52 18 is_stmt 0 view .LVU545
 2019 00ce 0D91     		str	r1, [sp, #52]	@ data_start, %sfp
 2020              	.LVL139:
  54:src/hebitmap_draw.h **** #endif
 2021              		.loc 2 54 9 is_stmt 1 view .LVU546
 2022              	@ src/hebitmap_draw.h:54:         uint8_t *mask_start = prv->mask + data_offset;
  54:src/hebitmap_draw.h **** #endif
 2023              		.loc 2 54 18 is_stmt 0 view .LVU547
 2024 00d0 8118     		adds	r1, r0, r2	@ mask_start, prv_131->mask, _28
 2025              	.LVL140:
 2026              	.LBB330:
 2027              	@ src/hebitmap_draw.h:56:         for(int row = y1; row < y2; row++)
  56:src/hebitmap_draw.h ****         {
 2028              		.loc 2 56 31 view .LVU548
 2029 00d2 0F95     		str	r5, [sp, #60]	@ y2.44_110, %sfp
 2030              	@ src/hebitmap_draw.h:56:         for(int row = y1; row < y2; row++)
  56:src/hebitmap_draw.h ****         {
 2031              		.loc 2 56 9 view .LVU549
 2032 00d4 0F98     		ldr	r0, [sp, #60]	@ y2.44_110, %sfp
 2033 00d6 159D     		ldr	r5, [sp, #84]	@ y1.29_16, %sfp
 2034              	.LBE330:
 2035              	@ src/hebitmap_draw.h:54:         uint8_t *mask_start = prv->mask + data_offset;
  54:src/hebitmap_draw.h **** #endif
 2036              		.loc 2 54 18 view .LVU550
 2037 00d8 0E91     		str	r1, [sp, #56]	@ mask_start, %sfp
 2038              	.LVL141:
  56:src/hebitmap_draw.h ****         {
 2039              		.loc 2 56 9 is_stmt 1 view .LVU551
 2040              	.LBB331:
  56:src/hebitmap_draw.h ****         {
 2041              		.loc 2 56 13 view .LVU552
  56:src/hebitmap_draw.h ****         {
 2042              		.loc 2 56 27 view .LVU553
 2043              	@ src/hebitmap_draw.h:56:         for(int row = y1; row < y2; row++)
  56:src/hebitmap_draw.h ****         {
 2044              		.loc 2 56 9 is_stmt 0 view .LVU554
 2045 00da 8542     		cmp	r5, r0	@ y1.29_16, y2.44_110
 2046 00dc 79D2     		bcs	.L75		@,
 2047              	.LBB275:
 2048              	@ src/hebitmap_draw.h:66:             int len = x2 - x1 / 32 * 32;
  66:src/hebitmap_draw.h ****             
 2049              		.loc 2 66 26 view .LVU555
 2050 00de 189A     		ldr	r2, [sp, #96]	@ x2, x2
 2051              	.LVL142:
 2052              	@ src/hebitmap_draw.h:65:             uint32_t shift_mask = ~(0xFFFFFFFF >> (x1 % 32));
  65:src/hebitmap_draw.h ****             int len = x2 - x1 / 32 * 32;
 2053              		.loc 2 65 55 view .LVU556
 2054 00e0 04F01F00 		and	r0, r4, #31	@ tmp347, x1.30_18,
 2055              	.LBE275:
 2056              	@ src/hebitmap_draw.h:56:         for(int row = y1; row < y2; row++)
  56:src/hebitmap_draw.h ****         {
 2057              		.loc 2 56 17 view .LVU557
 2058 00e4 1095     		str	r5, [sp, #64]	@ y1.29_16, %sfp
 2059              	.LBB324:
 2060              	@ src/hebitmap_draw.h:66:             int len = x2 - x1 / 32 * 32;
  66:src/hebitmap_draw.h ****             
 2061              		.loc 2 66 26 view .LVU558
ARM GAS  /var/folders/fr/v3bs66k977527trx432fyrqc0000gn/T//ccTJugNk.s 			page 64


 2062 00e6 A2EB0C01 		sub	r1, r2, ip	@ _36, x2, _50
 2063              	.LVL143:
 2064              	@ src/hebitmap_draw.h:65:             uint32_t shift_mask = ~(0xFFFFFFFF >> (x1 % 32));
  65:src/hebitmap_draw.h ****             int len = x2 - x1 / 32 * 32;
 2065              		.loc 2 65 48 view .LVU559
 2066 00ea 23FA00F0 		lsr	r0, r3, r0	@ tmp348, tmp343, tmp347
 2067 00ee 02F01F08 		and	r8, r2, #31	@ _102, x2,
 2068              	@ src/hebitmap_draw.h:65:             uint32_t shift_mask = ~(0xFFFFFFFF >> (x1 % 32));
  65:src/hebitmap_draw.h ****             int len = x2 - x1 / 32 * 32;
 2069              		.loc 2 65 22 view .LVU560
 2070 00f2 C043     		mvns	r0, r0	@ shift_mask, tmp348
 2071 00f4 0A46     		mov	r2, r1	@ _36, _36
 2072              	@ src/hebitmap_draw.h:66:             int len = x2 - x1 / 32 * 32;
  66:src/hebitmap_draw.h ****             
 2073              		.loc 2 66 26 view .LVU561
 2074 00f6 1391     		str	r1, [sp, #76]	@ _36, %sfp
 2075 00f8 2039     		subs	r1, r1, #32	@ tmp452, _36,
 2076 00fa 1A44     		add	r2, r2, r3	@ tmp453,
 2077              	@ src/hebitmap_draw.h:65:             uint32_t shift_mask = ~(0xFFFFFFFF >> (x1 % 32));
  65:src/hebitmap_draw.h ****             int len = x2 - x1 / 32 * 32;
 2078              		.loc 2 65 22 view .LVU562
 2079 00fc 1490     		str	r0, [sp, #80]	@ shift_mask, %sfp
 2080              	.LBB276:
 2081              	.LBB277:
 2082              	@ src/hebitmap_draw.h:79:                     uint32_t clip_mask = 0xFFFFFFFF << (32 - len);
  79:src/hebitmap_draw.h ****                     data = (data & clip_mask) | (bswap32(*frame_ptr) & ~clip_mask);
 2083              		.loc 2 79 60 view .LVU563
 2084 00fe C8F12000 		rsb	r0, r8, #32	@ tmp457, _102,
 2085 0102 22F01F02 		bic	r2, r2, #31	@ tmp454, tmp453,
 2086              	@ src/hebitmap_draw.h:79:                     uint32_t clip_mask = 0xFFFFFFFF << (32 - len);
  79:src/hebitmap_draw.h ****                     data = (data & clip_mask) | (bswap32(*frame_ptr) & ~clip_mask);
 2087              		.loc 2 79 30 view .LVU564
 2088 0106 8340     		lsls	r3, r3, r0	@ clip_mask, tmp343, tmp457
 2089 0108 0C93     		str	r3, [sp, #48]	@ clip_mask, %sfp
 2090 010a 8B1A     		subs	r3, r1, r2	@ _97, tmp452, tmp454
 2091 010c 0A93     		str	r3, [sp, #40]	@ _97, %sfp
 2092              	.LVL144:
 2093              	.L80:
  79:src/hebitmap_draw.h ****                     data = (data & clip_mask) | (bswap32(*frame_ptr) & ~clip_mask);
 2094              		.loc 2 79 30 view .LVU565
 2095              	.LBE277:
 2096              	.LBE276:
  58:src/hebitmap_draw.h ****             uint32_t *data_ptr = (uint32_t*)data_start;
 2097              		.loc 2 58 13 is_stmt 1 view .LVU566
  59:src/hebitmap_draw.h ****             uint32_t data_left = bswap32(*frame_ptr);
 2098              		.loc 2 59 13 view .LVU567
  60:src/hebitmap_draw.h **** #ifdef HEBITMAP_MASK
 2099              		.loc 2 60 13 view .LVU568
 2100              	@ src/hebitmap_draw.h:68:             while(len > 0)
  68:src/hebitmap_draw.h ****             {
 2101              		.loc 2 68 18 is_stmt 0 view .LVU569
 2102 010e 1398     		ldr	r0, [sp, #76]	@ _36, %sfp
 2103              	@ src/hebitmap_draw.h:60:             uint32_t data_left = bswap32(*frame_ptr);
  60:src/hebitmap_draw.h **** #ifdef HEBITMAP_MASK
 2104              		.loc 2 60 34 view .LVU570
 2105 0110 0B9F     		ldr	r7, [sp, #44]	@ frame_start, %sfp
 2106              	@ src/hebitmap_draw.h:68:             while(len > 0)
ARM GAS  /var/folders/fr/v3bs66k977527trx432fyrqc0000gn/T//ccTJugNk.s 			page 65


  68:src/hebitmap_draw.h ****             {
 2107              		.loc 2 68 18 view .LVU571
 2108 0112 0028     		cmp	r0, #0	@ _36,
 2109              	@ src/hebitmap_draw.h:60:             uint32_t data_left = bswap32(*frame_ptr);
  60:src/hebitmap_draw.h **** #ifdef HEBITMAP_MASK
 2110              		.loc 2 60 34 view .LVU572
 2111 0114 D7F800A0 		ldr	r10, [r7]	@ prephitmp_45, MEM[base: frame_start_243, offset: 0B]
 2112              	.LVL145:
 2113              	.LBB318:
 2114              	.LBI318:
  58:src/hebitmap_prv.h **** {
 2115              		.loc 3 58 24 is_stmt 1 view .LVU573
 2116              	.LBB319:
  61:src/hebitmap_prv.h ****     __asm("rev %0, %1" : "=r"(r) : "r"(n));
 2117              		.loc 3 61 5 view .LVU574
  62:src/hebitmap_prv.h ****     return r;
 2118              		.loc 3 62 5 view .LVU575
 2119              		.syntax unified
 2120              	@ 62 "src/hebitmap_prv.h" 1
 2121 0118 9AFA8AF3 		rev r3, r10	@ r, prephitmp_45
 2122              	@ 0 "" 2
 2123              	.LVL146:
 2124              		.loc 3 63 5 view .LVU576
 2125              		.loc 3 63 5 is_stmt 0 view .LVU577
 2126              		.thumb
 2127              		.syntax unified
 2128              	.LBE319:
 2129              	.LBE318:
  62:src/hebitmap_draw.h ****             uint32_t mask_left = 0x00000000;
 2130              		.loc 2 62 13 is_stmt 1 view .LVU578
  63:src/hebitmap_draw.h **** #endif
 2131              		.loc 2 63 13 view .LVU579
  65:src/hebitmap_draw.h ****             int len = x2 - x1 / 32 * 32;
 2132              		.loc 2 65 13 view .LVU580
  66:src/hebitmap_draw.h ****             
 2133              		.loc 2 66 13 view .LVU581
  68:src/hebitmap_draw.h ****             {
 2134              		.loc 2 68 13 view .LVU582
  68:src/hebitmap_draw.h ****             {
 2135              		.loc 2 68 18 view .LVU583
 2136 011c 48DD     		ble	.L78		@,
 2137              	@ src/hebitmap_draw.h:65:             uint32_t shift_mask = ~(0xFFFFFFFF >> (x1 % 32));
  65:src/hebitmap_draw.h ****             int len = x2 - x1 / 32 * 32;
 2138              		.loc 2 65 22 is_stmt 0 view .LVU584
 2139 011e DDF850C0 		ldr	ip, [sp, #80]	@ shift_mask, %sfp
 2140              	@ src/hebitmap_draw.h:63:             uint32_t mask_left = 0x00000000;
  63:src/hebitmap_draw.h **** #endif
 2141              		.loc 2 63 22 view .LVU585
 2142 0122 0022     		movs	r2, #0	@ mask_left,
 2143              	.LBB320:
 2144              	@ src/hebitmap_draw.h:86:                 data_left = bswap32(*data_ptr++) << (32 - shift);
  86:src/hebitmap_draw.h **** #ifdef HEBITMAP_MASK
 2145              		.loc 2 86 57 view .LVU586
 2146 0124 C6F1200E 		rsb	lr, r6, #32	@ _42, shift,
 2147 0128 DDE90D54 		ldrd	r5, r4, [sp, #52]	@ ivtmp.357, ivtmp.359,,
 2148 012c 11E0     		b	.L79		@
 2149              	.LVL147:
ARM GAS  /var/folders/fr/v3bs66k977527trx432fyrqc0000gn/T//ccTJugNk.s 			page 66


 2150              	.L77:
  86:src/hebitmap_draw.h **** #ifdef HEBITMAP_MASK
 2151              		.loc 2 86 57 view .LVU587
 2152              	.LBE320:
 2153              	@ src/hebitmap_draw.h:68:             while(len > 0)
  68:src/hebitmap_draw.h ****             {
 2154              		.loc 2 68 18 view .LVU588
 2155 012e 0A99     		ldr	r1, [sp, #40]	@ _97, %sfp
 2156              	.LBB321:
 2157              	.LBB280:
 2158              	.LBB281:
 2159              	@ src/hebitmap_prv.h:62:     __asm("rev %0, %1" : "=r"(r) : "r"(n));
  62:src/hebitmap_prv.h ****     return r;
 2160              		.loc 3 62 5 view .LVU589
 2161              		.syntax unified
 2162              	@ 62 "src/hebitmap_prv.h" 1
 2163 0130 1BBA     		rev r3, r3	@ r, data
 2164              	@ 0 "" 2
 2165              	.LVL148:
 2166              		.loc 3 63 5 is_stmt 1 view .LVU590
 2167              		.loc 3 63 5 is_stmt 0 view .LVU591
 2168              		.thumb
 2169              		.syntax unified
 2170              	.LBE281:
 2171              	.LBE280:
 2172              	.LBE321:
 2173              	@ src/hebitmap_draw.h:68:             while(len > 0)
  68:src/hebitmap_draw.h ****             {
 2174              		.loc 2 68 18 view .LVU592
 2175 0132 8142     		cmp	r1, r0	@ _97, len
 2176              	.LBB322:
 2177              	@ src/hebitmap_draw.h:83:                 *frame_ptr++ = bswap32(data);
  83:src/hebitmap_draw.h ****                 
 2178              		.loc 2 83 30 view .LVU593
 2179 0134 47F8043B 		str	r3, [r7], #4	@ r, MEM[base: frame_ptr_208, offset: 4294967292B]
 2180              	.LVL149:
  86:src/hebitmap_draw.h **** #ifdef HEBITMAP_MASK
 2181              		.loc 2 86 17 is_stmt 1 view .LVU594
 2182              	.LBB285:
 2183              	.LBI285:
  58:src/hebitmap_prv.h **** {
 2184              		.loc 3 58 24 view .LVU595
 2185              	.LBB286:
  61:src/hebitmap_prv.h ****     __asm("rev %0, %1" : "=r"(r) : "r"(n));
 2186              		.loc 3 61 5 view .LVU596
  62:src/hebitmap_prv.h ****     return r;
 2187              		.loc 3 62 5 view .LVU597
 2188 0138 55F8043C 		ldr	r3, [r5, #-4]	@ MEM[base: _94, offset: 4294967292B], MEM[base: _94, offset: 4294967292B]
 2189              	.LBE286:
 2190              	.LBE285:
 2191              	.LBB289:
 2192              	.LBB290:
 2193 013c 54F8042C 		ldr	r2, [r4, #-4]	@ MEM[base: _123, offset: 4294967292B], MEM[base: _123, offset: 4294967292B]
 2194              	.LBE290:
 2195              	.LBE289:
 2196              	.LBB294:
 2197              	.LBB287:
ARM GAS  /var/folders/fr/v3bs66k977527trx432fyrqc0000gn/T//ccTJugNk.s 			page 67


 2198              		.syntax unified
 2199              	@ 62 "src/hebitmap_prv.h" 1
 2200 0140 1BBA     		rev r3, r3	@ r, MEM[base: _94, offset: 4294967292B]
 2201              	@ 0 "" 2
 2202              	.LVL150:
 2203              		.loc 3 63 5 view .LVU598
 2204              		.loc 3 63 5 is_stmt 0 view .LVU599
 2205              		.thumb
 2206              		.syntax unified
 2207              	.LBE287:
 2208              	.LBE294:
 2209              	.LBB295:
 2210              	.LBB291:
 2211              	@ src/hebitmap_prv.h:62:     __asm("rev %0, %1" : "=r"(r) : "r"(n));
  62:src/hebitmap_prv.h ****     return r;
 2212              		.loc 3 62 5 view .LVU600
 2213              		.syntax unified
 2214              	@ 62 "src/hebitmap_prv.h" 1
 2215 0142 12BA     		rev r2, r2	@ r, MEM[base: _123, offset: 4294967292B]
 2216              	@ 0 "" 2
 2217              		.thumb
 2218              		.syntax unified
 2219              	.LBE291:
 2220              	.LBE295:
 2221              	@ src/hebitmap_draw.h:86:                 data_left = bswap32(*data_ptr++) << (32 - shift);
  86:src/hebitmap_draw.h **** #ifdef HEBITMAP_MASK
 2222              		.loc 2 86 27 view .LVU601
 2223 0144 03FA0EF3 		lsl	r3, r3, lr	@ r, r, _42
 2224              	.LVL151:
  89:src/hebitmap_draw.h **** #endif
 2225              		.loc 2 89 17 is_stmt 1 view .LVU602
 2226              	.LBB296:
 2227              	.LBI289:
  58:src/hebitmap_prv.h **** {
 2228              		.loc 3 58 24 view .LVU603
 2229              	.LBB292:
  61:src/hebitmap_prv.h ****     __asm("rev %0, %1" : "=r"(r) : "r"(n));
 2230              		.loc 3 61 5 view .LVU604
  62:src/hebitmap_prv.h ****     return r;
 2231              		.loc 3 62 5 view .LVU605
 2232              		.loc 3 63 5 view .LVU606
 2233              		.loc 3 63 5 is_stmt 0 view .LVU607
 2234              	.LBE292:
 2235              	.LBE296:
 2236              	@ src/hebitmap_draw.h:89:                 mask_left = bswap32(*mask_ptr++) << (32 - shift);
  89:src/hebitmap_draw.h **** #endif
 2237              		.loc 2 89 27 view .LVU608
 2238 0148 02FA0EF2 		lsl	r2, r2, lr	@ mask_left, r, _42
 2239              	.LVL152:
  91:src/hebitmap_draw.h ****                 len -= 32;
 2240              		.loc 2 91 17 is_stmt 1 view .LVU609
  92:src/hebitmap_draw.h ****             }
 2241              		.loc 2 92 17 view .LVU610
  92:src/hebitmap_draw.h ****             }
 2242              		.loc 2 92 17 is_stmt 0 view .LVU611
 2243              	.LBE322:
  68:src/hebitmap_draw.h ****             {
ARM GAS  /var/folders/fr/v3bs66k977527trx432fyrqc0000gn/T//ccTJugNk.s 			page 68


 2244              		.loc 2 68 18 is_stmt 1 view .LVU612
 2245 014c 30D0     		beq	.L78		@,
  68:src/hebitmap_draw.h ****             {
 2246              		.loc 2 68 18 is_stmt 0 view .LVU613
 2247 014e D7F800A0 		ldr	r10, [r7]	@ prephitmp_45, MEM[base: frame_ptr_208, offset: 0B]
 2248              	.LVL153:
 2249              	.L79:
 2250              	.LBB323:
  70:src/hebitmap_draw.h ****                 uint32_t data = (data_left & shift_mask) | (data_right & ~shift_mask);
 2251              		.loc 2 70 17 is_stmt 1 view .LVU614
 2252              	.LBB297:
 2253              	.LBB298:
 2254              	@ src/hebitmap_prv.h:62:     __asm("rev %0, %1" : "=r"(r) : "r"(n));
  62:src/hebitmap_prv.h ****     return r;
 2255              		.loc 3 62 5 is_stmt 0 view .LVU615
 2256 0152 2968     		ldr	r1, [r5]	@ MEM[base: data_ptr_270, offset: 0B], MEM[base: data_ptr_270, offset: 0B]
 2257              	.LBE298:
 2258              	.LBE297:
 2259              	@ src/hebitmap_draw.h:77:                 if(len < 32)
  77:src/hebitmap_draw.h ****                 {
 2260              		.loc 2 77 19 view .LVU616
 2261 0154 8045     		cmp	r8, r0	@ _102, len
 2262              	.LBB300:
 2263              	.LBB301:
 2264              	@ src/hebitmap_prv.h:62:     __asm("rev %0, %1" : "=r"(r) : "r"(n));
  62:src/hebitmap_prv.h ****     return r;
 2265              		.loc 3 62 5 view .LVU617
 2266 0156 D4F800B0 		ldr	fp, [r4]	@ MEM[base: mask_ptr_239, offset: 0B], MEM[base: mask_ptr_239, offset: 0B]
 2267 015a 05F10405 		add	r5, r5, #4	@ ivtmp.357, ivtmp.357,
 2268              	.LVL154:
  62:src/hebitmap_prv.h ****     return r;
 2269              		.loc 3 62 5 view .LVU618
 2270              	.LBE301:
 2271              	.LBE300:
 2272              	.LBB304:
 2273              	.LBI297:
  58:src/hebitmap_prv.h **** {
 2274              		.loc 3 58 24 is_stmt 1 view .LVU619
 2275              	.LBB299:
  61:src/hebitmap_prv.h ****     __asm("rev %0, %1" : "=r"(r) : "r"(n));
 2276              		.loc 3 61 5 view .LVU620
  62:src/hebitmap_prv.h ****     return r;
 2277              		.loc 3 62 5 view .LVU621
 2278              		.syntax unified
 2279              	@ 62 "src/hebitmap_prv.h" 1
 2280 015e 09BA     		rev r1, r1	@ r, MEM[base: data_ptr_270, offset: 0B]
 2281              	@ 0 "" 2
 2282              	.LVL155:
 2283              		.loc 3 63 5 view .LVU622
 2284              		.loc 3 63 5 is_stmt 0 view .LVU623
 2285              		.thumb
 2286              		.syntax unified
 2287              	.LBE299:
 2288              	.LBE304:
 2289              	.LBB305:
 2290              	.LBB302:
 2291              	@ src/hebitmap_prv.h:62:     __asm("rev %0, %1" : "=r"(r) : "r"(n));
ARM GAS  /var/folders/fr/v3bs66k977527trx432fyrqc0000gn/T//ccTJugNk.s 			page 69


  62:src/hebitmap_prv.h ****     return r;
 2292              		.loc 3 62 5 view .LVU624
 2293              		.syntax unified
 2294              	@ 62 "src/hebitmap_prv.h" 1
 2295 0160 9BFA8BFB 		rev fp, fp	@ r, MEM[base: mask_ptr_239, offset: 0B]
 2296              	@ 0 "" 2
 2297              		.thumb
 2298              		.syntax unified
 2299              	.LBE302:
 2300              	.LBE305:
 2301              	@ src/hebitmap_draw.h:70:                 uint32_t data_right = bswap32(*data_ptr) >> shift;
  70:src/hebitmap_draw.h ****                 uint32_t data = (data_left & shift_mask) | (data_right & ~shift_mask);
 2302              		.loc 2 70 26 view .LVU625
 2303 0164 21FA06F1 		lsr	r1, r1, r6	@ data_right, r, shift
 2304              	.LVL156:
  71:src/hebitmap_draw.h **** #ifdef HEBITMAP_MASK
 2305              		.loc 2 71 17 is_stmt 1 view .LVU626
  73:src/hebitmap_draw.h ****                 uint32_t mask = (mask_left & shift_mask) | (mask_right & ~shift_mask);
 2306              		.loc 2 73 17 view .LVU627
 2307              	@ src/hebitmap_draw.h:73:                 uint32_t mask_right = bswap32(*mask_ptr) >> shift;
  73:src/hebitmap_draw.h ****                 uint32_t mask = (mask_left & shift_mask) | (mask_right & ~shift_mask);
 2308              		.loc 2 73 26 is_stmt 0 view .LVU628
 2309 0168 2BFA06FB 		lsr	fp, fp, r6	@ mask_right, r, shift
 2310              	.LBB306:
 2311              	.LBB307:
 2312              	@ src/hebitmap_prv.h:62:     __asm("rev %0, %1" : "=r"(r) : "r"(n));
  62:src/hebitmap_prv.h ****     return r;
 2313              		.loc 3 62 5 view .LVU629
 2314              		.syntax unified
 2315              	@ 62 "src/hebitmap_prv.h" 1
 2316 016c 9AFA8AFA 		rev r10, r10	@ r, prephitmp_45
 2317              	@ 0 "" 2
 2318              		.thumb
 2319              		.syntax unified
 2320              	.LBE307:
 2321              	.LBE306:
 2322              	@ src/hebitmap_draw.h:75:                 data = (bswap32(*frame_ptr) & ~mask) | (data & mask);
  75:src/hebitmap_draw.h **** #endif
 2323              		.loc 2 75 22 view .LVU630
 2324 0170 83EA0103 		eor	r3, r3, r1	@ tmp361, r, data_right
 2325              	.LVL157:
 2326              	@ src/hebitmap_draw.h:74:                 uint32_t mask = (mask_left & shift_mask) | (mask_right & 
  74:src/hebitmap_draw.h ****                 data = (bswap32(*frame_ptr) & ~mask) | (data & mask);
 2327              		.loc 2 74 26 view .LVU631
 2328 0174 8BEA0202 		eor	r2, fp, r2	@ tmp365, mask_right, mask_left
 2329              	.LVL158:
 2330              	@ src/hebitmap_draw.h:75:                 data = (bswap32(*frame_ptr) & ~mask) | (data & mask);
  75:src/hebitmap_draw.h **** #endif
 2331              		.loc 2 75 22 view .LVU632
 2332 0178 8AEA0101 		eor	r1, r10, r1	@ tmp363, r, data_right
 2333              	.LVL159:
  75:src/hebitmap_draw.h **** #endif
 2334              		.loc 2 75 22 view .LVU633
 2335 017c 04F10404 		add	r4, r4, #4	@ ivtmp.359, ivtmp.359,
 2336              	.LVL160:
 2337              	.LBB309:
 2338              	.LBI300:
ARM GAS  /var/folders/fr/v3bs66k977527trx432fyrqc0000gn/T//ccTJugNk.s 			page 70


  58:src/hebitmap_prv.h **** {
 2339              		.loc 3 58 24 is_stmt 1 view .LVU634
 2340              	.LBB303:
  61:src/hebitmap_prv.h ****     __asm("rev %0, %1" : "=r"(r) : "r"(n));
 2341              		.loc 3 61 5 view .LVU635
  62:src/hebitmap_prv.h ****     return r;
 2342              		.loc 3 62 5 view .LVU636
 2343              		.loc 3 63 5 view .LVU637
 2344              		.loc 3 63 5 is_stmt 0 view .LVU638
 2345              	.LBE303:
 2346              	.LBE309:
  74:src/hebitmap_draw.h ****                 data = (bswap32(*frame_ptr) & ~mask) | (data & mask);
 2347              		.loc 2 74 17 is_stmt 1 view .LVU639
  75:src/hebitmap_draw.h **** #endif
 2348              		.loc 2 75 17 view .LVU640
 2349              	.LBB310:
 2350              	.LBI306:
  58:src/hebitmap_prv.h **** {
 2351              		.loc 3 58 24 view .LVU641
 2352              	.LBB308:
  61:src/hebitmap_prv.h ****     __asm("rev %0, %1" : "=r"(r) : "r"(n));
 2353              		.loc 3 61 5 view .LVU642
  62:src/hebitmap_prv.h ****     return r;
 2354              		.loc 3 62 5 view .LVU643
 2355              		.loc 3 63 5 view .LVU644
 2356              		.loc 3 63 5 is_stmt 0 view .LVU645
 2357              	.LBE308:
 2358              	.LBE310:
 2359              	@ src/hebitmap_draw.h:75:                 data = (bswap32(*frame_ptr) & ~mask) | (data & mask);
  75:src/hebitmap_draw.h **** #endif
 2360              		.loc 2 75 22 view .LVU646
 2361 0180 03EA0C03 		and	r3, r3, ip	@ tmp362, tmp361, shift_mask
 2362              	@ src/hebitmap_draw.h:74:                 uint32_t mask = (mask_left & shift_mask) | (mask_right & 
  74:src/hebitmap_draw.h ****                 data = (bswap32(*frame_ptr) & ~mask) | (data & mask);
 2363              		.loc 2 74 26 view .LVU647
 2364 0184 02EA0C02 		and	r2, r2, ip	@ tmp366, tmp365, shift_mask
 2365              	@ src/hebitmap_draw.h:92:                 len -= 32;
  92:src/hebitmap_draw.h ****             }
 2366              		.loc 2 92 21 view .LVU648
 2367 0188 A0F12000 		sub	r0, r0, #32	@ len, len,
 2368              	@ src/hebitmap_draw.h:91:                 shift_mask = og_shift_mask;
  91:src/hebitmap_draw.h ****                 len -= 32;
 2369              		.loc 2 91 28 view .LVU649
 2370 018c CC46     		mov	ip, r9	@ shift_mask, og_shift_mask
 2371              	.LVL161:
 2372              	@ src/hebitmap_draw.h:75:                 data = (bswap32(*frame_ptr) & ~mask) | (data & mask);
  75:src/hebitmap_draw.h **** #endif
 2373              		.loc 2 75 22 view .LVU650
 2374 018e 83EA0103 		eor	r3, r3, r1	@ tmp364, tmp362, tmp363
 2375              	@ src/hebitmap_draw.h:74:                 uint32_t mask = (mask_left & shift_mask) | (mask_right & 
  74:src/hebitmap_draw.h ****                 data = (bswap32(*frame_ptr) & ~mask) | (data & mask);
 2376              		.loc 2 74 26 view .LVU651
 2377 0192 82EA0B02 		eor	r2, r2, fp	@ mask, tmp366, mask_right
 2378              	@ src/hebitmap_draw.h:75:                 data = (bswap32(*frame_ptr) & ~mask) | (data & mask);
  75:src/hebitmap_draw.h **** #endif
 2379              		.loc 2 75 22 view .LVU652
 2380 0196 03EA0203 		and	r3, r3, r2	@ tmp368, tmp364, mask
ARM GAS  /var/folders/fr/v3bs66k977527trx432fyrqc0000gn/T//ccTJugNk.s 			page 71


 2381 019a 83EA0A03 		eor	r3, r3, r10	@ data, tmp368, r
 2382              	.LVL162:
  77:src/hebitmap_draw.h ****                 {
 2383              		.loc 2 77 17 is_stmt 1 view .LVU653
  83:src/hebitmap_draw.h ****                 
 2384              		.loc 2 83 17 view .LVU654
 2385              	.LBB311:
 2386              	.LBI280:
  58:src/hebitmap_prv.h **** {
 2387              		.loc 3 58 24 view .LVU655
 2388              	.LBB282:
  61:src/hebitmap_prv.h ****     __asm("rev %0, %1" : "=r"(r) : "r"(n));
 2389              		.loc 3 61 5 view .LVU656
  62:src/hebitmap_prv.h ****     return r;
 2390              		.loc 3 62 5 view .LVU657
 2391              	.LBE282:
 2392              	.LBE311:
 2393              	@ src/hebitmap_draw.h:77:                 if(len < 32)
  77:src/hebitmap_draw.h ****                 {
 2394              		.loc 2 77 19 is_stmt 0 view .LVU658
 2395 019e C6D1     		bne	.L77		@,
 2396              	.LBB312:
  79:src/hebitmap_draw.h ****                     data = (data & clip_mask) | (bswap32(*frame_ptr) & ~clip_mask);
 2397              		.loc 2 79 21 is_stmt 1 view .LVU659
 2398              	.LVL163:
  80:src/hebitmap_draw.h ****                 }
 2399              		.loc 2 80 21 view .LVU660
 2400              	.LBB278:
 2401              	.LBI278:
  58:src/hebitmap_prv.h **** {
 2402              		.loc 3 58 24 view .LVU661
 2403              	.LBB279:
  61:src/hebitmap_prv.h ****     __asm("rev %0, %1" : "=r"(r) : "r"(n));
 2404              		.loc 3 61 5 view .LVU662
  62:src/hebitmap_prv.h ****     return r;
 2405              		.loc 3 62 5 view .LVU663
 2406              		.loc 3 63 5 view .LVU664
 2407              		.loc 3 63 5 is_stmt 0 view .LVU665
 2408 01a0 8AEA0303 		eor	r3, r10, r3	@ tmp373, r, data
 2409              	.LVL164:
 2410              		.loc 3 63 5 view .LVU666
 2411 01a4 0C9A     		ldr	r2, [sp, #48]	@ clip_mask, %sfp
 2412 01a6 1340     		ands	r3, r3, r2	@, _237, tmp373, clip_mask
 2413              	.LVL165:
 2414              		.loc 3 63 5 view .LVU667
 2415              	.LBE279:
 2416              	.LBE278:
 2417              	.LBE312:
  83:src/hebitmap_draw.h ****                 
 2418              		.loc 2 83 17 is_stmt 1 view .LVU668
 2419              	.LBB313:
  58:src/hebitmap_prv.h **** {
 2420              		.loc 3 58 24 view .LVU669
 2421              	.LBB283:
  61:src/hebitmap_prv.h ****     __asm("rev %0, %1" : "=r"(r) : "r"(n));
 2422              		.loc 3 61 5 view .LVU670
  62:src/hebitmap_prv.h ****     return r;
ARM GAS  /var/folders/fr/v3bs66k977527trx432fyrqc0000gn/T//ccTJugNk.s 			page 72


 2423              		.loc 3 62 5 view .LVU671
 2424              	.LBE283:
 2425              	.LBE313:
 2426              	.LBB314:
 2427              	@ src/hebitmap_draw.h:80:                     data = (data & clip_mask) | (bswap32(*frame_ptr) & ~c
  80:src/hebitmap_draw.h ****                 }
 2428              		.loc 2 80 26 is_stmt 0 view .LVU672
 2429 01a8 8AEA0303 		eor	r3, r10, r3	@ data, r, _237
 2430              	.LVL166:
  80:src/hebitmap_draw.h ****                 }
 2431              		.loc 2 80 26 view .LVU673
 2432              	.LBE314:
 2433              	.LBB315:
 2434              	.LBB284:
 2435              	@ src/hebitmap_prv.h:62:     __asm("rev %0, %1" : "=r"(r) : "r"(n));
  62:src/hebitmap_prv.h ****     return r;
 2436              		.loc 3 62 5 view .LVU674
 2437              		.syntax unified
 2438              	@ 62 "src/hebitmap_prv.h" 1
 2439 01ac 1BBA     		rev r3, r3	@ r, data
 2440              	@ 0 "" 2
 2441              	.LVL167:
 2442              		.loc 3 63 5 is_stmt 1 view .LVU675
 2443              		.loc 3 63 5 is_stmt 0 view .LVU676
 2444              		.thumb
 2445              		.syntax unified
 2446              	.LBE284:
 2447              	.LBE315:
 2448              	@ src/hebitmap_draw.h:83:                 *frame_ptr++ = bswap32(data);
  83:src/hebitmap_draw.h ****                 
 2449              		.loc 2 83 30 view .LVU677
 2450 01ae 3B60     		str	r3, [r7]	@ r, *frame_ptr_266
  86:src/hebitmap_draw.h **** #ifdef HEBITMAP_MASK
 2451              		.loc 2 86 17 is_stmt 1 view .LVU678
 2452              	.LVL168:
 2453              	.LBB316:
  58:src/hebitmap_prv.h **** {
 2454              		.loc 3 58 24 view .LVU679
 2455              	.LBB288:
  61:src/hebitmap_prv.h ****     __asm("rev %0, %1" : "=r"(r) : "r"(n));
 2456              		.loc 3 61 5 view .LVU680
  62:src/hebitmap_prv.h ****     return r;
 2457              		.loc 3 62 5 view .LVU681
 2458              		.loc 3 63 5 view .LVU682
 2459              		.loc 3 63 5 is_stmt 0 view .LVU683
 2460              	.LBE288:
 2461              	.LBE316:
  89:src/hebitmap_draw.h **** #endif
 2462              		.loc 2 89 17 is_stmt 1 view .LVU684
 2463              	.LBB317:
  58:src/hebitmap_prv.h **** {
 2464              		.loc 3 58 24 view .LVU685
 2465              	.LBB293:
  61:src/hebitmap_prv.h ****     __asm("rev %0, %1" : "=r"(r) : "r"(n));
 2466              		.loc 3 61 5 view .LVU686
  62:src/hebitmap_prv.h ****     return r;
 2467              		.loc 3 62 5 view .LVU687
ARM GAS  /var/folders/fr/v3bs66k977527trx432fyrqc0000gn/T//ccTJugNk.s 			page 73


 2468              		.loc 3 63 5 view .LVU688
 2469              		.loc 3 63 5 is_stmt 0 view .LVU689
 2470              	.LBE293:
 2471              	.LBE317:
  91:src/hebitmap_draw.h ****                 len -= 32;
 2472              		.loc 2 91 17 is_stmt 1 view .LVU690
  92:src/hebitmap_draw.h ****             }
 2473              		.loc 2 92 17 view .LVU691
  92:src/hebitmap_draw.h ****             }
 2474              		.loc 2 92 17 is_stmt 0 view .LVU692
 2475              	.LBE323:
  68:src/hebitmap_draw.h ****             {
 2476              		.loc 2 68 18 is_stmt 1 view .LVU693
 2477              	.L78:
  95:src/hebitmap_draw.h ****             data_start += prv->rowbytes;
 2478              		.loc 2 95 13 discriminator 2 view .LVU694
 2479              	@ src/hebitmap_draw.h:95:             frame_start += LCD_ROWSIZE;
  95:src/hebitmap_draw.h ****             data_start += prv->rowbytes;
 2480              		.loc 2 95 25 is_stmt 0 discriminator 2 view .LVU695
 2481 01b0 0B9A     		ldr	r2, [sp, #44]	@ frame_start, %sfp
 2482              	@ src/hebitmap_draw.h:96:             data_start += prv->rowbytes;
  96:src/hebitmap_draw.h **** #ifdef HEBITMAP_MASK
 2483              		.loc 2 96 24 discriminator 2 view .LVU696
 2484 01b2 0D99     		ldr	r1, [sp, #52]	@ data_start, %sfp
 2485              	@ src/hebitmap_draw.h:95:             frame_start += LCD_ROWSIZE;
  95:src/hebitmap_draw.h ****             data_start += prv->rowbytes;
 2486              		.loc 2 95 25 discriminator 2 view .LVU697
 2487 01b4 3432     		adds	r2, r2, #52	@ frame_start, frame_start,
 2488              	.LBE324:
 2489              	@ src/hebitmap_draw.h:56:         for(int row = y1; row < y2; row++)
  56:src/hebitmap_draw.h ****         {
 2490              		.loc 2 56 40 discriminator 2 view .LVU698
 2491 01b6 109B     		ldr	r3, [sp, #64]	@ row, %sfp
 2492              	.LBB325:
 2493              	@ src/hebitmap_draw.h:96:             data_start += prv->rowbytes;
  96:src/hebitmap_draw.h **** #ifdef HEBITMAP_MASK
 2494              		.loc 2 96 24 discriminator 2 view .LVU699
 2495 01b8 0846     		mov	r0, r1	@ data_start, data_start
 2496              	@ src/hebitmap_draw.h:98:             mask_start += prv->rowbytes;
  98:src/hebitmap_draw.h **** #endif
 2497              		.loc 2 98 24 discriminator 2 view .LVU700
 2498 01ba 0E99     		ldr	r1, [sp, #56]	@ mask_start, %sfp
 2499              	@ src/hebitmap_draw.h:95:             frame_start += LCD_ROWSIZE;
  95:src/hebitmap_draw.h ****             data_start += prv->rowbytes;
 2500              		.loc 2 95 25 discriminator 2 view .LVU701
 2501 01bc 0B92     		str	r2, [sp, #44]	@ frame_start, %sfp
 2502              	.LVL169:
  96:src/hebitmap_draw.h **** #ifdef HEBITMAP_MASK
 2503              		.loc 2 96 13 is_stmt 1 discriminator 2 view .LVU702
 2504              	.LBE325:
 2505              	@ src/hebitmap_draw.h:56:         for(int row = y1; row < y2; row++)
  56:src/hebitmap_draw.h ****         {
 2506              		.loc 2 56 40 is_stmt 0 discriminator 2 view .LVU703
 2507 01be 0133     		adds	r3, r3, #1	@ row, row,
 2508              	.LBB326:
 2509              	@ src/hebitmap_draw.h:96:             data_start += prv->rowbytes;
  96:src/hebitmap_draw.h **** #ifdef HEBITMAP_MASK
ARM GAS  /var/folders/fr/v3bs66k977527trx432fyrqc0000gn/T//ccTJugNk.s 			page 74


 2510              		.loc 2 96 24 discriminator 2 view .LVU704
 2511 01c0 129A     		ldr	r2, [sp, #72]	@ _26, %sfp
 2512              	.LVL170:
  96:src/hebitmap_draw.h **** #ifdef HEBITMAP_MASK
 2513              		.loc 2 96 24 discriminator 2 view .LVU705
 2514              	.LBE326:
 2515              	@ src/hebitmap_draw.h:56:         for(int row = y1; row < y2; row++)
  56:src/hebitmap_draw.h ****         {
 2516              		.loc 2 56 40 discriminator 2 view .LVU706
 2517 01c2 1093     		str	r3, [sp, #64]	@ row, %sfp
 2518              	.LVL171:
 2519              	.LBB327:
 2520              	@ src/hebitmap_draw.h:96:             data_start += prv->rowbytes;
  96:src/hebitmap_draw.h **** #ifdef HEBITMAP_MASK
 2521              		.loc 2 96 24 discriminator 2 view .LVU707
 2522 01c4 1044     		add	r0, r0, r2	@ data_start, _26
 2523              	@ src/hebitmap_draw.h:98:             mask_start += prv->rowbytes;
  98:src/hebitmap_draw.h **** #endif
 2524              		.loc 2 98 24 discriminator 2 view .LVU708
 2525 01c6 1144     		add	r1, r1, r2	@ mask_start, _26
 2526              	.LBE327:
 2527              	@ src/hebitmap_draw.h:56:         for(int row = y1; row < y2; row++)
  56:src/hebitmap_draw.h ****         {
 2528              		.loc 2 56 9 discriminator 2 view .LVU709
 2529 01c8 0F9A     		ldr	r2, [sp, #60]	@ y2.44_110, %sfp
 2530              	.LBB328:
 2531              	@ src/hebitmap_draw.h:96:             data_start += prv->rowbytes;
  96:src/hebitmap_draw.h **** #ifdef HEBITMAP_MASK
 2532              		.loc 2 96 24 discriminator 2 view .LVU710
 2533 01ca 0D90     		str	r0, [sp, #52]	@ data_start, %sfp
 2534              	.LVL172:
  98:src/hebitmap_draw.h **** #endif
 2535              		.loc 2 98 13 is_stmt 1 discriminator 2 view .LVU711
 2536              	.LBE328:
 2537              	@ src/hebitmap_draw.h:56:         for(int row = y1; row < y2; row++)
  56:src/hebitmap_draw.h ****         {
 2538              		.loc 2 56 9 is_stmt 0 discriminator 2 view .LVU712
 2539 01cc 9342     		cmp	r3, r2	@ row, y2.44_110
 2540              	.LBB329:
 2541              	@ src/hebitmap_draw.h:98:             mask_start += prv->rowbytes;
  98:src/hebitmap_draw.h **** #endif
 2542              		.loc 2 98 24 discriminator 2 view .LVU713
 2543 01ce 0E91     		str	r1, [sp, #56]	@ mask_start, %sfp
 2544              	.LVL173:
  98:src/hebitmap_draw.h **** #endif
 2545              		.loc 2 98 24 discriminator 2 view .LVU714
 2546              	.LBE329:
  56:src/hebitmap_draw.h ****         {
 2547              		.loc 2 56 37 is_stmt 1 discriminator 2 view .LVU715
  56:src/hebitmap_draw.h ****         {
 2548              		.loc 2 56 27 discriminator 2 view .LVU716
 2549              	@ src/hebitmap_draw.h:56:         for(int row = y1; row < y2; row++)
  56:src/hebitmap_draw.h ****         {
 2550              		.loc 2 56 9 is_stmt 0 discriminator 2 view .LVU717
 2551 01d0 9DD1     		bne	.L80		@,
 2552              	.LVL174:
 2553              	.L75:
ARM GAS  /var/folders/fr/v3bs66k977527trx432fyrqc0000gn/T//ccTJugNk.s 			page 75


  56:src/hebitmap_draw.h ****         {
 2554              		.loc 2 56 9 discriminator 2 view .LVU718
 2555              	.LBE331:
 2556              	.LBE273:
 190:src/hebitmap_draw.h **** }
 2557              		.loc 2 190 5 is_stmt 1 discriminator 1 view .LVU719
 2558              	@ src/hebitmap_draw.h:190:     playdate->graphics->markUpdatedRows(y1, y2 - 1);
 190:src/hebitmap_draw.h **** }
 2559              		.loc 2 190 23 is_stmt 0 discriminator 1 view .LVU720
 2560 01d2 119B     		ldr	r3, [sp, #68]	@ playdate, %sfp
 2561              	@ src/hebitmap_draw.h:190:     playdate->graphics->markUpdatedRows(y1, y2 - 1);
 190:src/hebitmap_draw.h **** }
 2562              		.loc 2 190 5 discriminator 1 view .LVU721
 2563 01d4 0F9A     		ldr	r2, [sp, #60]	@ y2.44_110, %sfp
 2564              	@ src/hebitmap_draw.h:190:     playdate->graphics->markUpdatedRows(y1, y2 - 1);
 190:src/hebitmap_draw.h **** }
 2565              		.loc 2 190 23 discriminator 1 view .LVU722
 2566 01d6 9B68     		ldr	r3, [r3, #8]	@ playdate_137(D)->graphics, playdate_137(D)->graphics
 2567              	@ src/hebitmap_draw.h:190:     playdate->graphics->markUpdatedRows(y1, y2 - 1);
 190:src/hebitmap_draw.h **** }
 2568              		.loc 2 190 5 discriminator 1 view .LVU723
 2569 01d8 511E     		subs	r1, r2, #1	@, y2.44_110,
 2570 01da 1598     		ldr	r0, [sp, #84]	@, %sfp
 2571 01dc D3F8B430 		ldr	r3, [r3, #180]	@ _86->markUpdatedRows, _86->markUpdatedRows
 2572 01e0 9847     		blx	r3		@ _86->markUpdatedRows
 2573              	.LVL175:
 2574              	@ src/hebitmap_draw.h:191: }
 2575              		.loc 2 191 1 discriminator 1 view .LVU724
 2576 01e2 1DB0     		add	sp, sp, #116	@,,
 2577              	.LCFI15:
 2578              		.cfi_remember_state
 2579              		.cfi_def_cfa_offset 36
 2580              		@ sp needed	@
 2581 01e4 BDE8F08F 		pop	{r4, r5, r6, r7, r8, r9, r10, fp, pc}	@
 2582              	.LVL176:
 2583              	.L74:
 2584              	.LCFI16:
 2585              		.cfi_restore_state
 2586              	.LBB332:
 114:src/hebitmap_draw.h ****         
 2587              		.loc 2 114 9 is_stmt 1 view .LVU725
 2588              	@ src/hebitmap_draw.h:114:         int shift = (unsigned int)abs(x) % 32;
 114:src/hebitmap_draw.h ****         
 2589              		.loc 2 114 35 is_stmt 0 view .LVU726
 2590 01e8 86EAE677 		eor	r7, r6, r6, asr #31	@ tmp385, x, x,
 2591              	@ src/hebitmap_draw.h:125:         if(x >= 0 && shift > 0)
 125:src/hebitmap_draw.h ****         {
 2592              		.loc 2 125 11 view .LVU727
 2593 01ec 002E     		cmp	r6, #0	@ x,
 2594              	@ src/hebitmap_draw.h:114:         int shift = (unsigned int)abs(x) % 32;
 114:src/hebitmap_draw.h ****         
 2595              		.loc 2 114 35 view .LVU728
 2596 01ee A7EBE677 		sub	r7, r7, r6, asr #31	@ tmp385, tmp385, x,
 2597              	@ src/hebitmap_draw.h:114:         int shift = (unsigned int)abs(x) % 32;
 114:src/hebitmap_draw.h ****         
 2598              		.loc 2 114 13 view .LVU729
 2599 01f2 07F01F07 		and	r7, r7, #31	@ shift, tmp385,
ARM GAS  /var/folders/fr/v3bs66k977527trx432fyrqc0000gn/T//ccTJugNk.s 			page 76


 2600              	.LVL177:
 125:src/hebitmap_draw.h ****         {
 2601              		.loc 2 125 9 is_stmt 1 view .LVU730
 2602              	@ src/hebitmap_draw.h:125:         if(x >= 0 && shift > 0)
 125:src/hebitmap_draw.h ****         {
 2603              		.loc 2 125 11 is_stmt 0 view .LVU731
 2604 01f6 02DB     		blt	.L81		@,
 2605 01f8 0FB1     		cbz	r7, .L81	@ shift,
 127:src/hebitmap_draw.h ****         }
 2606              		.loc 2 127 13 is_stmt 1 view .LVU732
 2607              	@ src/hebitmap_draw.h:127:             shift = 32 - shift;
 127:src/hebitmap_draw.h ****         }
 2608              		.loc 2 127 19 is_stmt 0 view .LVU733
 2609 01fa C7F12007 		rsb	r7, r7, #32	@ shift, shift,
 2610              	.LVL178:
 2611              	.L81:
 129:src/hebitmap_draw.h **** 
 2612              		.loc 2 129 9 is_stmt 1 view .LVU734
 2613              	@ src/hebitmap_draw.h:132:         int data_offset = offset_top * prv->rowbytes + offset_32 / 32 * 
 132:src/hebitmap_draw.h ****         
 2614              		.loc 2 132 43 is_stmt 0 view .LVU735
 2615 01fe AB68     		ldr	r3, [r5, #8]	@ _53, prv_131->rowbytes
 2616              	.LVL179:
 2617              	@ src/hebitmap_draw.h:131:         unsigned int offset_32 = x1 / 32 * 32 - x;
 131:src/hebitmap_draw.h ****         int data_offset = offset_top * prv->rowbytes + offset_32 / 32 * 4;
 2618              		.loc 2 131 22 view .LVU736
 2619 0200 ACEB0606 		sub	r6, ip, r6	@ offset_32, _50, x
 2620              	.LVL180:
 2621              	@ src/hebitmap_draw.h:129:         uint32_t shift_mask = 0xFFFFFFFF << shift;
 129:src/hebitmap_draw.h **** 
 2622              		.loc 2 129 18 view .LVU737
 2623 0204 4FF0FF32 		mov	r2, #-1	@ tmp394,
 2624              	@ src/hebitmap_draw.h:132:         int data_offset = offset_top * prv->rowbytes + offset_32 / 32 * 
 132:src/hebitmap_draw.h ****         
 2625              		.loc 2 132 43 view .LVU738
 2626 0208 1946     		mov	r1, r3	@ _53, _53
 2627 020a 1093     		str	r3, [sp, #64]	@ _53, %sfp
 2628              	@ src/hebitmap_draw.h:132:         int data_offset = offset_top * prv->rowbytes + offset_32 / 32 * 
 132:src/hebitmap_draw.h ****         
 2629              		.loc 2 132 38 view .LVU739
 2630 020c 1B9B     		ldr	r3, [sp, #108]	@ offset_top, offset_top
 2631              	@ src/hebitmap_draw.h:132:         int data_offset = offset_top * prv->rowbytes + offset_32 / 32 * 
 132:src/hebitmap_draw.h ****         
 2632              		.loc 2 132 66 view .LVU740
 2633 020e 7009     		lsrs	r0, r6, #5	@ tmp396, offset_32,
 2634              	@ src/hebitmap_draw.h:134:         uint8_t *data_start = prv->data + data_offset;
 134:src/hebitmap_draw.h **** #ifdef HEBITMAP_MASK
 2635              		.loc 2 134 18 view .LVU741
 2636 0210 2E68     		ldr	r6, [r5]	@ prv_131->data, prv_131->data
 2637              	@ src/hebitmap_draw.h:129:         uint32_t shift_mask = 0xFFFFFFFF << shift;
 129:src/hebitmap_draw.h **** 
 2638              		.loc 2 129 18 view .LVU742
 2639 0212 02FA07FE 		lsl	lr, r2, r7	@ shift_mask, tmp394, shift
 2640              	.LVL181:
 131:src/hebitmap_draw.h ****         int data_offset = offset_top * prv->rowbytes + offset_32 / 32 * 4;
 2641              		.loc 2 131 9 is_stmt 1 view .LVU743
 132:src/hebitmap_draw.h ****         
ARM GAS  /var/folders/fr/v3bs66k977527trx432fyrqc0000gn/T//ccTJugNk.s 			page 77


 2642              		.loc 2 132 9 view .LVU744
 2643              	@ src/hebitmap_draw.h:132:         int data_offset = offset_top * prv->rowbytes + offset_32 / 32 * 
 132:src/hebitmap_draw.h ****         
 2644              		.loc 2 132 38 is_stmt 0 view .LVU745
 2645 0216 03FB01F3 		mul	r3, r3, r1	@ tmp398, offset_top, _53
 2646              	@ src/hebitmap_draw.h:136:         uint8_t *mask_start = prv->mask + data_offset;
 136:src/hebitmap_draw.h **** #endif
 2647              		.loc 2 136 18 view .LVU746
 2648 021a 6D68     		ldr	r5, [r5, #4]	@ prv_131->mask, prv_131->mask
 2649              	.LVL182:
 2650              	.LBB333:
 2651              	@ src/hebitmap_draw.h:138:         for(int row = y1; row < y2; row++)
 138:src/hebitmap_draw.h ****         {
 2652              		.loc 2 138 31 view .LVU747
 2653 021c 1999     		ldr	r1, [sp, #100]	@ y2.44_110, y2
 2654              	.LBE333:
 2655              	@ src/hebitmap_draw.h:132:         int data_offset = offset_top * prv->rowbytes + offset_32 / 32 * 
 132:src/hebitmap_draw.h ****         
 2656              		.loc 2 132 54 view .LVU748
 2657 021e 03EB8000 		add	r0, r3, r0, lsl #2	@ _58, tmp398, tmp396,
 2658              	.LVL183:
 134:src/hebitmap_draw.h **** #ifdef HEBITMAP_MASK
 2659              		.loc 2 134 9 is_stmt 1 view .LVU749
 2660              	.LBB410:
 2661              	@ src/hebitmap_draw.h:138:         for(int row = y1; row < y2; row++)
 138:src/hebitmap_draw.h ****         {
 2662              		.loc 2 138 31 is_stmt 0 view .LVU750
 2663 0222 0F91     		str	r1, [sp, #60]	@ y2.44_110, %sfp
 2664              	.LBE410:
 2665              	@ src/hebitmap_draw.h:134:         uint8_t *data_start = prv->data + data_offset;
 134:src/hebitmap_draw.h **** #ifdef HEBITMAP_MASK
 2666              		.loc 2 134 18 view .LVU751
 2667 0224 3318     		adds	r3, r6, r0	@ data_start, prv_131->data, _58
 2668 0226 0D93     		str	r3, [sp, #52]	@ data_start, %sfp
 2669              	.LVL184:
 136:src/hebitmap_draw.h **** #endif
 2670              		.loc 2 136 9 is_stmt 1 view .LVU752
 2671              	@ src/hebitmap_draw.h:136:         uint8_t *mask_start = prv->mask + data_offset;
 136:src/hebitmap_draw.h **** #endif
 2672              		.loc 2 136 18 is_stmt 0 view .LVU753
 2673 0228 2B18     		adds	r3, r5, r0	@ mask_start, prv_131->mask, _58
 2674              	.LVL185:
 2675              	.LBB411:
 2676              	@ src/hebitmap_draw.h:138:         for(int row = y1; row < y2; row++)
 138:src/hebitmap_draw.h ****         {
 2677              		.loc 2 138 9 view .LVU754
 2678 022a 1598     		ldr	r0, [sp, #84]	@ y1.29_16, %sfp
 2679              	.LVL186:
 138:src/hebitmap_draw.h ****         {
 2680              		.loc 2 138 9 view .LVU755
 2681              	.LBE411:
 2682              	@ src/hebitmap_draw.h:136:         uint8_t *mask_start = prv->mask + data_offset;
 136:src/hebitmap_draw.h **** #endif
 2683              		.loc 2 136 18 view .LVU756
 2684 022c 0C93     		str	r3, [sp, #48]	@ mask_start, %sfp
 2685              	.LVL187:
 138:src/hebitmap_draw.h ****         {
ARM GAS  /var/folders/fr/v3bs66k977527trx432fyrqc0000gn/T//ccTJugNk.s 			page 78


 2686              		.loc 2 138 9 is_stmt 1 view .LVU757
 2687              	.LBB412:
 138:src/hebitmap_draw.h ****         {
 2688              		.loc 2 138 13 view .LVU758
 138:src/hebitmap_draw.h ****         {
 2689              		.loc 2 138 27 view .LVU759
 2690              	@ src/hebitmap_draw.h:138:         for(int row = y1; row < y2; row++)
 138:src/hebitmap_draw.h ****         {
 2691              		.loc 2 138 9 is_stmt 0 view .LVU760
 2692 022e 8842     		cmp	r0, r1	@ y1.29_16, y2.44_110
 2693 0230 CFD2     		bcs	.L75		@,
 2694              	.LBB334:
 2695              	@ src/hebitmap_draw.h:148:             int len = x2 - x1 / 32 * 32;
 148:src/hebitmap_draw.h ****             
 2696              		.loc 2 148 26 view .LVU761
 2697 0232 189B     		ldr	r3, [sp, #96]	@ x2, x2
 2698              	.LVL188:
 2699              	@ src/hebitmap_draw.h:147:             uint32_t clip_left_mask = ~(0xFFFFFFFF >> (x1 % 32));
 147:src/hebitmap_draw.h ****             int len = x2 - x1 / 32 * 32;
 2700              		.loc 2 147 59 view .LVU762
 2701 0234 04F01F04 		and	r4, r4, #31	@ tmp402, x1.30_18,
 2702              	.LBE334:
 2703              	@ src/hebitmap_draw.h:138:         for(int row = y1; row < y2; row++)
 138:src/hebitmap_draw.h ****         {
 2704              		.loc 2 138 17 view .LVU763
 2705 0238 0E90     		str	r0, [sp, #56]	@ y1.29_16, %sfp
 2706              	.LBB404:
 2707              	.LBB335:
 2708              	@ src/hebitmap_draw.h:152:                 uint32_t data_right = ((len + shift) > 32) ? (bswap32(*+
 152:src/hebitmap_draw.h ****                 uint32_t data = (data_left & shift_mask) | (data_right & ~shift_mask);
 2709              		.loc 2 152 91 view .LVU764
 2710 023a C7F12009 		rsb	r9, r7, #32	@ _74, shift,
 2711              	.LBE335:
 2712              	@ src/hebitmap_draw.h:148:             int len = x2 - x1 / 32 * 32;
 148:src/hebitmap_draw.h ****             
 2713              		.loc 2 148 26 view .LVU765
 2714 023e A3EB0C03 		sub	r3, r3, ip	@ _70, x2, _50
 2715              	@ src/hebitmap_draw.h:147:             uint32_t clip_left_mask = ~(0xFFFFFFFF >> (x1 % 32));
 147:src/hebitmap_draw.h ****             int len = x2 - x1 / 32 * 32;
 2716              		.loc 2 147 52 view .LVU766
 2717 0242 22FA04F4 		lsr	r4, r2, r4	@ tmp403, tmp394, tmp402
 2718              	@ src/hebitmap_draw.h:148:             int len = x2 - x1 / 32 * 32;
 148:src/hebitmap_draw.h ****             
 2719              		.loc 2 148 26 view .LVU767
 2720 0246 1293     		str	r3, [sp, #72]	@ _70, %sfp
 2721 0248 1A46     		mov	r2, r3	@ _70, _70
 2722 024a 013B     		subs	r3, r3, #1	@ tmp463, _70,
 2723              	@ src/hebitmap_draw.h:147:             uint32_t clip_left_mask = ~(0xFFFFFFFF >> (x1 % 32));
 147:src/hebitmap_draw.h ****             int len = x2 - x1 / 32 * 32;
 2724              		.loc 2 147 22 view .LVU768
 2725 024c E043     		mvns	r0, r4	@ clip_left_mask, tmp403
 2726              	.LVL189:
 147:src/hebitmap_draw.h ****             int len = x2 - x1 / 32 * 32;
 2727              		.loc 2 147 22 view .LVU769
 2728 024e A2F12001 		sub	r1, r2, #32	@ tmp462, _70,
 2729 0252 02F01F08 		and	r8, r2, #31	@ _298, _70,
 2730 0256 23F01F03 		bic	r3, r3, #31	@ tmp464, tmp463,
ARM GAS  /var/folders/fr/v3bs66k977527trx432fyrqc0000gn/T//ccTJugNk.s 			page 79


 2731 025a 1390     		str	r0, [sp, #76]	@ clip_left_mask, %sfp
 2732 025c CB1A     		subs	r3, r1, r3	@ _278, tmp462, tmp464
 2733 025e 0A93     		str	r3, [sp, #40]	@ _278, %sfp
 2734              	.LVL190:
 2735              	.L90:
 140:src/hebitmap_draw.h ****             uint32_t *data_ptr = (uint32_t*)data_start;
 2736              		.loc 2 140 13 is_stmt 1 view .LVU770
 141:src/hebitmap_draw.h ****             uint32_t data_left = bswap32(*data_ptr) << shift;
 2737              		.loc 2 141 13 view .LVU771
 142:src/hebitmap_draw.h **** #ifdef HEBITMAP_MASK
 2738              		.loc 2 142 13 view .LVU772
 2739              	.LBB384:
 2740              	.LBI384:
  58:src/hebitmap_prv.h **** {
 2741              		.loc 3 58 24 view .LVU773
 2742              	.LBB385:
  61:src/hebitmap_prv.h ****     __asm("rev %0, %1" : "=r"(r) : "r"(n));
 2743              		.loc 3 61 5 view .LVU774
  62:src/hebitmap_prv.h ****     return r;
 2744              		.loc 3 62 5 view .LVU775
 2745              	.LBE385:
 2746              	.LBE384:
 2747              	@ src/hebitmap_draw.h:150:             while(len > 0)
 150:src/hebitmap_draw.h ****             {
 2748              		.loc 2 150 18 is_stmt 0 view .LVU776
 2749 0260 1299     		ldr	r1, [sp, #72]	@ _70, %sfp
 2750              	.LBB389:
 2751              	.LBB386:
 2752              	@ src/hebitmap_prv.h:62:     __asm("rev %0, %1" : "=r"(r) : "r"(n));
  62:src/hebitmap_prv.h ****     return r;
 2753              		.loc 3 62 5 view .LVU777
 2754 0262 0D9E     		ldr	r6, [sp, #52]	@ data_start, %sfp
 2755              	.LBE386:
 2756              	.LBE389:
 2757              	.LBB390:
 2758              	.LBB391:
 2759 0264 0C98     		ldr	r0, [sp, #48]	@ mask_start, %sfp
 2760              	.LBE391:
 2761              	.LBE390:
 2762              	@ src/hebitmap_draw.h:150:             while(len > 0)
 150:src/hebitmap_draw.h ****             {
 2763              		.loc 2 150 18 view .LVU778
 2764 0266 0029     		cmp	r1, #0	@ _70,
 2765              	.LBB395:
 2766              	.LBB387:
 2767              	@ src/hebitmap_prv.h:62:     __asm("rev %0, %1" : "=r"(r) : "r"(n));
  62:src/hebitmap_prv.h ****     return r;
 2768              		.loc 3 62 5 view .LVU779
 2769 0268 3268     		ldr	r2, [r6]	@ MEM[(uint32_t *)data_start_262], MEM[(uint32_t *)data_start_262]
 2770              	.LBE387:
 2771              	.LBE395:
 2772              	.LBB396:
 2773              	.LBB392:
 2774 026a 0368     		ldr	r3, [r0]	@ MEM[(uint32_t *)mask_start_116], MEM[(uint32_t *)mask_start_116]
 2775              	.LBE392:
 2776              	.LBE396:
 2777              	.LBB397:
ARM GAS  /var/folders/fr/v3bs66k977527trx432fyrqc0000gn/T//ccTJugNk.s 			page 80


 2778              	.LBB388:
 2779              		.syntax unified
 2780              	@ 62 "src/hebitmap_prv.h" 1
 2781 026c 12BA     		rev r2, r2	@ r, MEM[(uint32_t *)data_start_262]
 2782              	@ 0 "" 2
 2783              	.LVL191:
 2784              		.loc 3 63 5 is_stmt 1 view .LVU780
 2785              		.loc 3 63 5 is_stmt 0 view .LVU781
 2786              		.thumb
 2787              		.syntax unified
 2788              	.LBE388:
 2789              	.LBE397:
 2790              	.LBB398:
 2791              	.LBB393:
 2792              	@ src/hebitmap_prv.h:62:     __asm("rev %0, %1" : "=r"(r) : "r"(n));
  62:src/hebitmap_prv.h ****     return r;
 2793              		.loc 3 62 5 view .LVU782
 2794              		.syntax unified
 2795              	@ 62 "src/hebitmap_prv.h" 1
 2796 026e 1BBA     		rev r3, r3	@ r, MEM[(uint32_t *)mask_start_116]
 2797              	@ 0 "" 2
 2798              		.thumb
 2799              		.syntax unified
 2800              	.LBE393:
 2801              	.LBE398:
 2802              	@ src/hebitmap_draw.h:142:             uint32_t data_left = bswap32(*data_ptr) << shift;
 142:src/hebitmap_draw.h **** #ifdef HEBITMAP_MASK
 2803              		.loc 2 142 22 view .LVU783
 2804 0270 02FA07F2 		lsl	r2, r2, r7	@ data_left, r, shift
 2805              	.LVL192:
 144:src/hebitmap_draw.h ****             uint32_t mask_left = bswap32(*mask_ptr) << shift;
 2806              		.loc 2 144 13 is_stmt 1 view .LVU784
 145:src/hebitmap_draw.h **** #endif
 2807              		.loc 2 145 13 view .LVU785
 2808              	.LBB399:
 2809              	.LBI390:
  58:src/hebitmap_prv.h **** {
 2810              		.loc 3 58 24 view .LVU786
 2811              	.LBB394:
  61:src/hebitmap_prv.h ****     __asm("rev %0, %1" : "=r"(r) : "r"(n));
 2812              		.loc 3 61 5 view .LVU787
  62:src/hebitmap_prv.h ****     return r;
 2813              		.loc 3 62 5 view .LVU788
 2814              		.loc 3 63 5 view .LVU789
 2815              		.loc 3 63 5 is_stmt 0 view .LVU790
 2816              	.LBE394:
 2817              	.LBE399:
 2818              	@ src/hebitmap_draw.h:145:             uint32_t mask_left = bswap32(*mask_ptr) << shift;
 145:src/hebitmap_draw.h **** #endif
 2819              		.loc 2 145 22 view .LVU791
 2820 0274 03FA07F3 		lsl	r3, r3, r7	@ mask_left, r, shift
 2821              	.LVL193:
 147:src/hebitmap_draw.h ****             int len = x2 - x1 / 32 * 32;
 2822              		.loc 2 147 13 is_stmt 1 view .LVU792
 148:src/hebitmap_draw.h ****             
 2823              		.loc 2 148 13 view .LVU793
 150:src/hebitmap_draw.h ****             {
ARM GAS  /var/folders/fr/v3bs66k977527trx432fyrqc0000gn/T//ccTJugNk.s 			page 81


 2824              		.loc 2 150 13 view .LVU794
 150:src/hebitmap_draw.h ****             {
 2825              		.loc 2 150 18 view .LVU795
 2826 0278 5DDD     		ble	.L83		@,
 2827 027a 0C46     		mov	r4, r1	@ len, _70
 2828 027c 8446     		mov	ip, r0	@ mask_ptr, mask_start
 2829              	@ src/hebitmap_draw.h:147:             uint32_t clip_left_mask = ~(0xFFFFFFFF >> (x1 % 32));
 147:src/hebitmap_draw.h ****             int len = x2 - x1 / 32 * 32;
 2830              		.loc 2 147 22 is_stmt 0 view .LVU796
 2831 027e 1399     		ldr	r1, [sp, #76]	@ clip_left_mask, %sfp
 2832              	.LVL194:
 2833              	@ src/hebitmap_draw.h:150:             while(len > 0)
 150:src/hebitmap_draw.h ****             {
 2834              		.loc 2 150 18 view .LVU797
 2835 0280 0B9D     		ldr	r5, [sp, #44]	@ frame_ptr, %sfp
 2836 0282 38E0     		b	.L88		@
 2837              	.LVL195:
 2838              	.L107:
 2839              	.LBB400:
 2840              	.LBB336:
 2841              	.LBB337:
 2842              	@ src/hebitmap_prv.h:62:     __asm("rev %0, %1" : "=r"(r) : "r"(n));
  62:src/hebitmap_prv.h ****     return r;
 2843              		.loc 3 62 5 discriminator 1 view .LVU798
 2844 0284 7068     		ldr	r0, [r6, #4]	@ MEM[(uint32_t *)data_ptr_286 + 4B], MEM[(uint32_t *)data_ptr_286 + 4B]
 2845              	.LBE337:
 2846              	.LBE336:
 2847              	@ src/hebitmap_draw.h:155:                 uint32_t mask_right = ((len + shift) > 32) ? (bswap32(*+
 155:src/hebitmap_draw.h ****                 uint32_t mask = (mask_left & shift_mask) | (mask_right & ~shift_mask);
 2848              		.loc 2 155 101 discriminator 1 view .LVU799
 2849 0286 0CF1040C 		add	ip, ip, #4	@ mask_ptr, mask_ptr,
 2850              	.LBB340:
 2851              	.LBB338:
 2852              	@ src/hebitmap_prv.h:62:     __asm("rev %0, %1" : "=r"(r) : "r"(n));
  62:src/hebitmap_prv.h ****     return r;
 2853              		.loc 3 62 5 discriminator 1 view .LVU800
 2854              		.syntax unified
 2855              	@ 62 "src/hebitmap_prv.h" 1
 2856 028a 90FA80FA 		rev r10, r0	@ r, MEM[(uint32_t *)data_ptr_286 + 4B]
 2857              	@ 0 "" 2
 2858              	.LVL196:
 2859              		.loc 3 63 5 is_stmt 1 discriminator 1 view .LVU801
 2860              		.loc 3 63 5 is_stmt 0 discriminator 1 view .LVU802
 2861              		.thumb
 2862              		.syntax unified
 2863              	.LBE338:
 2864              	.LBE340:
 2865              	@ src/hebitmap_draw.h:152:                 uint32_t data_right = ((len + shift) > 32) ? (bswap32(*+
 152:src/hebitmap_draw.h ****                 uint32_t data = (data_left & shift_mask) | (data_right & ~shift_mask);
 2866              		.loc 2 152 101 discriminator 1 view .LVU803
 2867 028e 2AFA09FA 		lsr	r10, r10, r9	@ iftmp.54_161, r, _74
 2868              	.LVL197:
 153:src/hebitmap_draw.h **** #ifdef HEBITMAP_MASK
 2869              		.loc 2 153 17 is_stmt 1 discriminator 1 view .LVU804
 2870              	.LBB341:
 2871              	.LBB342:
 2872              	@ src/hebitmap_prv.h:62:     __asm("rev %0, %1" : "=r"(r) : "r"(n));
ARM GAS  /var/folders/fr/v3bs66k977527trx432fyrqc0000gn/T//ccTJugNk.s 			page 82


  62:src/hebitmap_prv.h ****     return r;
 2873              		.loc 3 62 5 is_stmt 0 discriminator 1 view .LVU805
 2874 0292 DCF80000 		ldr	r0, [ip]	@ MEM[(uint32_t *)mask_ptr_288 + 4B], MEM[(uint32_t *)mask_ptr_288 + 4B]
 2875              		.syntax unified
 2876              	@ 62 "src/hebitmap_prv.h" 1
 2877 0296 00BA     		rev r0, r0	@ r, MEM[(uint32_t *)mask_ptr_288 + 4B]
 2878              	@ 0 "" 2
 2879              		.thumb
 2880              		.syntax unified
 2881              	.LBE342:
 2882              	.LBE341:
 2883              	@ src/hebitmap_draw.h:153:                 uint32_t data = (data_left & shift_mask) | (data_right &
 153:src/hebitmap_draw.h **** #ifdef HEBITMAP_MASK
 2884              		.loc 2 153 26 discriminator 1 view .LVU806
 2885 0298 8AEA0202 		eor	r2, r10, r2	@ tmp416, iftmp.54_161, data_left
 2886              	.LVL198:
 2887              	@ src/hebitmap_draw.h:155:                 uint32_t mask_right = ((len + shift) > 32) ? (bswap32(*+
