ARM GAS  /var/folders/fr/v3bs66k977527trx432fyrqc0000gn/T//ccfzNPwq.s 			page 1


   1              		.cpu cortex-m7
   2              		.eabi_attribute 27, 1	@ Tag_ABI_HardFP_use
   3              		.eabi_attribute 28, 1	@ Tag_ABI_VFP_args
   4              		.eabi_attribute 20, 1	@ Tag_ABI_FP_denormal
   5              		.eabi_attribute 21, 1	@ Tag_ABI_FP_exceptions
   6              		.eabi_attribute 23, 3	@ Tag_ABI_FP_number_model
   7              		.eabi_attribute 24, 1	@ Tag_ABI_align8_needed
   8              		.eabi_attribute 25, 1	@ Tag_ABI_align8_preserved
   9              		.eabi_attribute 26, 1	@ Tag_ABI_enum_size
  10              		.eabi_attribute 30, 2	@ Tag_ABI_optimization_goals
  11              		.eabi_attribute 34, 1	@ Tag_CPU_unaligned_access
  12              		.eabi_attribute 18, 4	@ Tag_ABI_PCS_wchar_t
  13              		.file	"setup.c"
  14              	@ GNU C17 (GNU Tools for Arm Embedded Processors 9-2019-q4-major) version 9.2.1 20191025 (release) 
  15              	@	compiled by GNU C version 4.2.1 Compatible Apple LLVM 9.0.0 (clang-900.0.39.2), GMP version 6.1.0
  16              	
  17              	@ GGC heuristics: --param ggc-min-expand=100 --param ggc-min-heapsize=131072
  18              	@ options passed:  -I . -I . -I /Users/rae/Developer/PlaydateSDK/C_API
  19              	@ -I src -imultilib thumb/v7e-m+fp/hard
  20              	@ -iprefix /usr/local/playdate/gcc-arm-none-eabi-9-2019-q4-major/bin/../lib/gcc/arm-none-eabi/9.2.1
  21              	@ -isysroot /usr/local/playdate/gcc-arm-none-eabi-9-2019-q4-major/bin/../arm-none-eabi
  22              	@ -MD build//Users/rae/Developer/PlaydateSDK/C_API/buildsupport/setup.d
  23              	@ -MF build/dep/setup.o.d -MP
  24              	@ -MQ build//Users/rae/Developer/PlaydateSDK/C_API/buildsupport/setup.o
  25              	@ -D__USES_INITFINI__ -D __FPU_USED=1 -D TARGET_PLAYDATE=1
  26              	@ -D TARGET_EXTENSION=1
  27              	@ /Users/rae/Developer/PlaydateSDK/C_API/buildsupport/setup.c -mthumb
  28              	@ -mcpu=cortex-m7 -mfloat-abi=hard -mfpu=fpv5-sp-d16 -mword-relocations
  29              	@ -march=armv7e-m+fpv5
  30              	@ -auxbase-strip build//Users/rae/Developer/PlaydateSDK/C_API/buildsupport/setup.o
  31              	@ -g3 -gdwarf-2 -O2 -Wall -Wno-unused -Wstrict-prototypes
  32              	@ -Wno-unknown-pragmas -Wdouble-promotion -falign-functions=16
  33              	@ -fomit-frame-pointer -fverbose-asm -fno-common -ffunction-sections
  34              	@ -fdata-sections
  35              	@ options enabled:  -faggressive-loop-optimizations -falign-functions
  36              	@ -falign-jumps -falign-labels -falign-loops -fassume-phsa -fauto-inc-dec
  37              	@ -fbranch-count-reg -fcaller-saves -fcombine-stack-adjustments
  38              	@ -fcompare-elim -fcprop-registers -fcrossjumping -fcse-follow-jumps
  39              	@ -fdata-sections -fdefer-pop -fdelete-null-pointer-checks -fdevirtualize
  40              	@ -fdevirtualize-speculatively -fdwarf2-cfi-asm -fearly-inlining
  41              	@ -feliminate-unused-debug-types -fexpensive-optimizations
  42              	@ -fforward-propagate -ffp-int-builtin-inexact -ffunction-cse
  43              	@ -ffunction-sections -fgcse -fgcse-lm -fgnu-runtime -fgnu-unique
  44              	@ -fguess-branch-probability -fhoist-adjacent-loads -fident -fif-conversion
  45              	@ -fif-conversion2 -findirect-inlining -finline -finline-atomics
  46              	@ -finline-functions-called-once -finline-small-functions -fipa-bit-cp
  47              	@ -fipa-cp -fipa-icf -fipa-icf-functions -fipa-icf-variables -fipa-profile
  48              	@ -fipa-pure-const -fipa-ra -fipa-reference -fipa-reference-addressable
  49              	@ -fipa-sra -fipa-stack-alignment -fipa-vrp -fira-hoist-pressure
  50              	@ -fira-share-save-slots -fira-share-spill-slots
  51              	@ -fisolate-erroneous-paths-dereference -fivopts -fkeep-static-consts
  52              	@ -fleading-underscore -flifetime-dse -flra-remat -flto-odr-type-merging
  53              	@ -fmath-errno -fmerge-constants -fmerge-debug-strings
  54              	@ -fmove-loop-invariants -fomit-frame-pointer -foptimize-sibling-calls
  55              	@ -foptimize-strlen -fpartial-inlining -fpeephole -fpeephole2 -fplt
  56              	@ -fprefetch-loop-arrays -freg-struct-return -freorder-blocks
  57              	@ -freorder-functions -frerun-cse-after-loop
ARM GAS  /var/folders/fr/v3bs66k977527trx432fyrqc0000gn/T//ccfzNPwq.s 			page 2


  58              	@ -fsched-critical-path-heuristic -fsched-dep-count-heuristic
  59              	@ -fsched-group-heuristic -fsched-interblock -fsched-last-insn-heuristic
  60              	@ -fsched-pressure -fsched-rank-heuristic -fsched-spec
  61              	@ -fsched-spec-insn-heuristic -fsched-stalled-insns-dep -fschedule-insns
  62              	@ -fschedule-insns2 -fsection-anchors -fsemantic-interposition
  63              	@ -fshow-column -fshrink-wrap -fshrink-wrap-separate -fsigned-zeros
  64              	@ -fsplit-ivs-in-unroller -fsplit-wide-types -fssa-backprop -fssa-phiopt
  65              	@ -fstdarg-opt -fstore-merging -fstrict-aliasing
  66              	@ -fstrict-volatile-bitfields -fsync-libcalls -fthread-jumps
  67              	@ -ftoplevel-reorder -ftrapping-math -ftree-bit-ccp -ftree-builtin-call-dce
  68              	@ -ftree-ccp -ftree-ch -ftree-coalesce-vars -ftree-copy-prop -ftree-cselim
  69              	@ -ftree-dce -ftree-dominator-opts -ftree-dse -ftree-forwprop -ftree-fre
  70              	@ -ftree-loop-if-convert -ftree-loop-im -ftree-loop-ivcanon
  71              	@ -ftree-loop-optimize -ftree-parallelize-loops= -ftree-phiprop -ftree-pre
  72              	@ -ftree-pta -ftree-reassoc -ftree-scev-cprop -ftree-sink -ftree-slsr
  73              	@ -ftree-sra -ftree-switch-conversion -ftree-tail-merge -ftree-ter
  74              	@ -ftree-vrp -funit-at-a-time -fvar-tracking -fvar-tracking-assignments
  75              	@ -fverbose-asm -fzero-initialized-in-bss -masm-syntax-unified -mbe32
  76              	@ -mlittle-endian -mpic-data-is-text-relative -msched-prolog -mthumb
  77              	@ -munaligned-access -mvectorize-with-neon-quad -mword-relocations
  78              	
  79              		.text
  80              	.Ltext0:
  81              		.cfi_sections	.debug_frame
  82              		.section	.text.eventHandlerShim,"ax",%progbits
  83              		.align	1
  84              		.p2align 4,,15
  85              		.global	eventHandlerShim
  86              		.arch armv7e-m
  87              		.syntax unified
  88              		.thumb
  89              		.thumb_func
  90              		.fpu fpv5-sp-d16
  91              		.type	eventHandlerShim, %function
  92              	eventHandlerShim:
  93              	.LVL0:
  94              	.LFB12:
  95              		.file 1 "/Users/rae/Developer/PlaydateSDK/C_API/buildsupport/setup.c"
   1:/Users/rae/Developer/PlaydateSDK/C_API/buildsupport/setup.c **** 
   2:/Users/rae/Developer/PlaydateSDK/C_API/buildsupport/setup.c **** #include "pd_api.h"
   3:/Users/rae/Developer/PlaydateSDK/C_API/buildsupport/setup.c **** 
   4:/Users/rae/Developer/PlaydateSDK/C_API/buildsupport/setup.c **** typedef int (PDEventHandler)(PlaydateAPI* playdate, PDSystemEvent event, uint32_t arg);
   5:/Users/rae/Developer/PlaydateSDK/C_API/buildsupport/setup.c **** 
   6:/Users/rae/Developer/PlaydateSDK/C_API/buildsupport/setup.c **** extern PDEventHandler eventHandler;
   7:/Users/rae/Developer/PlaydateSDK/C_API/buildsupport/setup.c **** 
   8:/Users/rae/Developer/PlaydateSDK/C_API/buildsupport/setup.c **** static void* (*pdrealloc)(void* ptr, size_t size);
   9:/Users/rae/Developer/PlaydateSDK/C_API/buildsupport/setup.c **** 
  10:/Users/rae/Developer/PlaydateSDK/C_API/buildsupport/setup.c **** int eventHandlerShim(PlaydateAPI* playdate, PDSystemEvent event, uint32_t arg)
  11:/Users/rae/Developer/PlaydateSDK/C_API/buildsupport/setup.c **** {
  96              		.loc 1 11 1 view -0
  97              		.cfi_startproc
  98              		@ args = 0, pretend = 0, frame = 0
  99              		@ frame_needed = 0, uses_anonymous_args = 0
 100              		@ link register save eliminated.
  12:/Users/rae/Developer/PlaydateSDK/C_API/buildsupport/setup.c **** 	if ( event == kEventInit )
 101              		.loc 1 12 2 view .LVU1
 102              	@ /Users/rae/Developer/PlaydateSDK/C_API/buildsupport/setup.c:12: 	if ( event == kEventInit )
ARM GAS  /var/folders/fr/v3bs66k977527trx432fyrqc0000gn/T//ccfzNPwq.s 			page 3


 103              		.loc 1 12 5 is_stmt 0 view .LVU2
 104 0000 41B9     		cbnz	r1, .L4	@ event,
  13:/Users/rae/Developer/PlaydateSDK/C_API/buildsupport/setup.c **** 		pdrealloc = playdate->system->realloc;
 105              		.loc 1 13 3 is_stmt 1 view .LVU3
 106              	@ /Users/rae/Developer/PlaydateSDK/C_API/buildsupport/setup.c:13: 		pdrealloc = playdate->system->r
 107              		.loc 1 13 13 is_stmt 0 view .LVU4
 108 0002 054B     		ldr	r3, .L8	@ tmp116,
 109              	@ /Users/rae/Developer/PlaydateSDK/C_API/buildsupport/setup.c:11: {
  11:/Users/rae/Developer/PlaydateSDK/C_API/buildsupport/setup.c **** 	if ( event == kEventInit )
 110              		.loc 1 11 1 view .LVU5
 111 0004 10B4     		push	{r4}	@
 112              	.LCFI0:
 113              		.cfi_def_cfa_offset 4
 114              		.cfi_offset 4, -4
 115              	@ /Users/rae/Developer/PlaydateSDK/C_API/buildsupport/setup.c:13: 		pdrealloc = playdate->system->r
 116              		.loc 1 13 31 view .LVU6
 117 0006 0468     		ldr	r4, [r0]	@ playdate_6(D)->system, playdate_6(D)->system
 118              	@ /Users/rae/Developer/PlaydateSDK/C_API/buildsupport/setup.c:13: 		pdrealloc = playdate->system->r
 119              		.loc 1 13 13 view .LVU7
 120 0008 2468     		ldr	r4, [r4]	@ _1->realloc, _1->realloc
 121 000a 1C60     		str	r4, [r3]	@ _1->realloc, pdrealloc
  14:/Users/rae/Developer/PlaydateSDK/C_API/buildsupport/setup.c **** 	
  15:/Users/rae/Developer/PlaydateSDK/C_API/buildsupport/setup.c **** 	return eventHandler(playdate, event, arg);
 122              		.loc 1 15 2 is_stmt 1 view .LVU8
 123              	@ /Users/rae/Developer/PlaydateSDK/C_API/buildsupport/setup.c:16: }
  16:/Users/rae/Developer/PlaydateSDK/C_API/buildsupport/setup.c **** }
 124              		.loc 1 16 1 is_stmt 0 view .LVU9
 125 000c 5DF8044B 		ldr	r4, [sp], #4	@,
 126              	.LCFI1:
 127              		.cfi_restore 4
 128              		.cfi_def_cfa_offset 0
 129              	@ /Users/rae/Developer/PlaydateSDK/C_API/buildsupport/setup.c:15: 	return eventHandler(playdate, ev
  15:/Users/rae/Developer/PlaydateSDK/C_API/buildsupport/setup.c **** }
 130              		.loc 1 15 9 view .LVU10
 131 0010 FFF7FEBF 		b	eventHandler		@
 132              	.LVL1:
 133              	.L4:
  15:/Users/rae/Developer/PlaydateSDK/C_API/buildsupport/setup.c **** }
 134              		.loc 1 15 2 is_stmt 1 view .LVU11
 135              	@ /Users/rae/Developer/PlaydateSDK/C_API/buildsupport/setup.c:15: 	return eventHandler(playdate, ev
  15:/Users/rae/Developer/PlaydateSDK/C_API/buildsupport/setup.c **** }
 136              		.loc 1 15 9 is_stmt 0 view .LVU12
 137 0014 FFF7FEBF 		b	eventHandler		@
 138              	.LVL2:
 139              	.L9:
  15:/Users/rae/Developer/PlaydateSDK/C_API/buildsupport/setup.c **** }
 140              		.loc 1 15 9 view .LVU13
 141              		.align	2
 142              	.L8:
 143 0018 00000000 		.word	.LANCHOR0
 144              		.cfi_endproc
 145              	.LFE12:
 146              		.size	eventHandlerShim, .-eventHandlerShim
 147              		.section	.text._malloc_r,"ax",%progbits
 148              		.align	1
 149              		.p2align 4,,15
 150              		.global	_malloc_r
ARM GAS  /var/folders/fr/v3bs66k977527trx432fyrqc0000gn/T//ccfzNPwq.s 			page 4


 151              		.syntax unified
 152              		.thumb
 153              		.thumb_func
 154              		.fpu fpv5-sp-d16
 155              		.type	_malloc_r, %function
 156              	_malloc_r:
 157              	.LVL3:
 158              	.LFB13:
  17:/Users/rae/Developer/PlaydateSDK/C_API/buildsupport/setup.c **** 
  18:/Users/rae/Developer/PlaydateSDK/C_API/buildsupport/setup.c **** #if TARGET_PLAYDATE
  19:/Users/rae/Developer/PlaydateSDK/C_API/buildsupport/setup.c **** 
  20:/Users/rae/Developer/PlaydateSDK/C_API/buildsupport/setup.c **** void* _malloc_r(struct _reent* _REENT, size_t nbytes) { return pdrealloc(NULL,nbytes); }
 159              		.loc 1 20 55 is_stmt 1 view -0
 160              		.cfi_startproc
 161              		@ args = 0, pretend = 0, frame = 0
 162              		@ frame_needed = 0, uses_anonymous_args = 0
 163              		@ link register save eliminated.
 164              		.loc 1 20 57 view .LVU15
 165              	@ /Users/rae/Developer/PlaydateSDK/C_API/buildsupport/setup.c:20: void* _malloc_r(struct _reent* _R
 166              		.loc 1 20 64 is_stmt 0 view .LVU16
 167 0000 014B     		ldr	r3, .L11	@ tmp114,
 168 0002 0020     		movs	r0, #0	@,
 169              	.LVL4:
 170              		.loc 1 20 64 view .LVU17
 171 0004 1B68     		ldr	r3, [r3]	@ pdrealloc, pdrealloc
 172 0006 1847     		bx	r3		@ pdrealloc
 173              	.LVL5:
 174              	.L12:
 175              		.loc 1 20 64 view .LVU18
 176              		.align	2
 177              	.L11:
 178 0008 00000000 		.word	.LANCHOR0
 179              		.cfi_endproc
 180              	.LFE13:
 181              		.size	_malloc_r, .-_malloc_r
 182              		.section	.text._realloc_r,"ax",%progbits
 183              		.align	1
 184              		.p2align 4,,15
 185              		.global	_realloc_r
 186              		.syntax unified
 187              		.thumb
 188              		.thumb_func
 189              		.fpu fpv5-sp-d16
 190              		.type	_realloc_r, %function
 191              	_realloc_r:
 192              	.LVL6:
 193              	.LFB14:
  21:/Users/rae/Developer/PlaydateSDK/C_API/buildsupport/setup.c **** void* _realloc_r(struct _reent* _REENT, void* ptr, size_t nbytes) { return pdrealloc(ptr,nbytes); }
 194              		.loc 1 21 67 is_stmt 1 view -0
 195              		.cfi_startproc
 196              		@ args = 0, pretend = 0, frame = 0
 197              		@ frame_needed = 0, uses_anonymous_args = 0
 198              		@ link register save eliminated.
 199              		.loc 1 21 69 view .LVU20
 200              	@ /Users/rae/Developer/PlaydateSDK/C_API/buildsupport/setup.c:21: void* _realloc_r(struct _reent* _
 201              		.loc 1 21 76 is_stmt 0 view .LVU21
 202 0000 024B     		ldr	r3, .L14	@ tmp115,
ARM GAS  /var/folders/fr/v3bs66k977527trx432fyrqc0000gn/T//ccfzNPwq.s 			page 5


 203 0002 0846     		mov	r0, r1	@, tmp117
 204              	.LVL7:
 205              		.loc 1 21 76 view .LVU22
 206 0004 1146     		mov	r1, r2	@, tmp118
 207              	.LVL8:
 208              		.loc 1 21 76 view .LVU23
 209 0006 1B68     		ldr	r3, [r3]	@ pdrealloc, pdrealloc
 210 0008 1847     		bx	r3		@ pdrealloc
 211              	.LVL9:
 212              	.L15:
 213              		.loc 1 21 76 view .LVU24
 214 000a 00BF     		.align	2
 215              	.L14:
 216 000c 00000000 		.word	.LANCHOR0
 217              		.cfi_endproc
 218              	.LFE14:
 219              		.size	_realloc_r, .-_realloc_r
 220              		.section	.text._free_r,"ax",%progbits
 221              		.align	1
 222              		.p2align 4,,15
 223              		.global	_free_r
 224              		.syntax unified
 225              		.thumb
 226              		.thumb_func
 227              		.fpu fpv5-sp-d16
 228              		.type	_free_r, %function
 229              	_free_r:
 230              	.LVL10:
 231              	.LFB15:
  22:/Users/rae/Developer/PlaydateSDK/C_API/buildsupport/setup.c **** void _free_r(struct _reent* _REENT, void* ptr ) { if ( ptr != NULL ) pdrealloc(ptr,0); }
 232              		.loc 1 22 49 is_stmt 1 view -0
 233              		.cfi_startproc
 234              		@ args = 0, pretend = 0, frame = 0
 235              		@ frame_needed = 0, uses_anonymous_args = 0
 236              		@ link register save eliminated.
 237              		.loc 1 22 51 view .LVU26
 238              	@ /Users/rae/Developer/PlaydateSDK/C_API/buildsupport/setup.c:22: void _free_r(struct _reent* _REEN
 239              		.loc 1 22 54 is_stmt 0 view .LVU27
 240 0000 0846     		mov	r0, r1	@ ptr, tmp115
 241              	.LVL11:
 242              		.loc 1 22 54 view .LVU28
 243 0002 19B1     		cbz	r1, .L16	@ ptr,
 244              		.loc 1 22 70 is_stmt 1 discriminator 1 view .LVU29
 245 0004 024B     		ldr	r3, .L18	@ tmp113,
 246 0006 0021     		movs	r1, #0	@,
 247              	.LVL12:
 248              		.loc 1 22 70 is_stmt 0 discriminator 1 view .LVU30
 249 0008 1B68     		ldr	r3, [r3]	@ pdrealloc, pdrealloc
 250 000a 1847     		bx	r3		@ pdrealloc
 251              	.LVL13:
 252              	.L16:
 253              	@ /Users/rae/Developer/PlaydateSDK/C_API/buildsupport/setup.c:22: void _free_r(struct _reent* _REEN
 254              		.loc 1 22 21 view .LVU31
 255 000c 7047     		bx	lr	@
 256              	.L19:
 257 000e 00BF     		.align	2
 258              	.L18:
ARM GAS  /var/folders/fr/v3bs66k977527trx432fyrqc0000gn/T//ccfzNPwq.s 			page 6


 259 0010 00000000 		.word	.LANCHOR0
 260              		.cfi_endproc
 261              	.LFE15:
 262              		.size	_free_r, .-_free_r
 263              		.section	.bss.pdrealloc,"aw",%nobits
 264              		.align	2
 265              		.set	.LANCHOR0,. + 0
 266              		.type	pdrealloc, %object
 267              		.size	pdrealloc, 4
 268              	pdrealloc:
 269 0000 00000000 		.space	4
 270              		.text
 271              	.Letext0:
 272              		.file 2 "/usr/local/playdate/gcc-arm-none-eabi-9-2019-q4-major/arm-none-eabi/include/machine/_defa
 273              		.file 3 "/usr/local/playdate/gcc-arm-none-eabi-9-2019-q4-major/arm-none-eabi/include/sys/_stdint.h
 274              		.file 4 "/usr/local/playdate/gcc-arm-none-eabi-9-2019-q4-major/lib/gcc/arm-none-eabi/9.2.1/include
 275              		.file 5 "/usr/local/playdate/gcc-arm-none-eabi-9-2019-q4-major/arm-none-eabi/include/sys/lock.h"
 276              		.file 6 "/usr/local/playdate/gcc-arm-none-eabi-9-2019-q4-major/arm-none-eabi/include/sys/_types.h"
 277              		.file 7 "/usr/local/playdate/gcc-arm-none-eabi-9-2019-q4-major/arm-none-eabi/include/sys/reent.h"
 278              		.file 8 "/usr/local/playdate/gcc-arm-none-eabi-9-2019-q4-major/arm-none-eabi/include/stdlib.h"
 279              		.file 9 "/Users/rae/Developer/PlaydateSDK/C_API/pd_api/pd_api_gfx.h"
 280              		.file 10 "/usr/local/playdate/gcc-arm-none-eabi-9-2019-q4-major/lib/gcc/arm-none-eabi/9.2.1/includ
 281              		.file 11 "/Users/rae/Developer/PlaydateSDK/C_API/pd_api/pd_api_sys.h"
 282              		.file 12 "/Users/rae/Developer/PlaydateSDK/C_API/pd_api/pd_api_lua.h"
 283              		.file 13 "/Users/rae/Developer/PlaydateSDK/C_API/pd_api/pd_api_json.h"
 284              		.file 14 "/Users/rae/Developer/PlaydateSDK/C_API/pd_api/pd_api_file.h"
 285              		.file 15 "/Users/rae/Developer/PlaydateSDK/C_API/pd_api/pd_api_sprite.h"
 286              		.file 16 "/Users/rae/Developer/PlaydateSDK/C_API/pd_api/pd_api_sound.h"
 287              		.file 17 "/usr/local/playdate/gcc-arm-none-eabi-9-2019-q4-major/arm-none-eabi/include/math.h"
 288              		.file 18 "/Users/rae/Developer/PlaydateSDK/C_API/pd_api/pd_api_display.h"
 289              		.file 19 "/Users/rae/Developer/PlaydateSDK/C_API/pd_api/pd_api_scoreboards.h"
 290              		.file 20 "/Users/rae/Developer/PlaydateSDK/C_API/pd_api.h"
 291              		.file 21 "<built-in>"